
multiply.riscv:     file format elf32-littleriscv


Disassembly of section .text.init:

80000000 <_start>:
80000000:	00000093          	li	ra,0
80000004:	00000113          	li	sp,0
80000008:	00000193          	li	gp,0
8000000c:	00000213          	li	tp,0
80000010:	00000293          	li	t0,0
80000014:	00000313          	li	t1,0
80000018:	00000393          	li	t2,0
8000001c:	00000413          	li	s0,0
80000020:	00000493          	li	s1,0
80000024:	00000513          	li	a0,0
80000028:	00000593          	li	a1,0
8000002c:	00000613          	li	a2,0
80000030:	00000693          	li	a3,0
80000034:	00000713          	li	a4,0
80000038:	00000793          	li	a5,0
8000003c:	00000813          	li	a6,0
80000040:	00000893          	li	a7,0
80000044:	00000913          	li	s2,0
80000048:	00000993          	li	s3,0
8000004c:	00000a13          	li	s4,0
80000050:	00000a93          	li	s5,0
80000054:	00000b13          	li	s6,0
80000058:	00000b93          	li	s7,0
8000005c:	00000c13          	li	s8,0
80000060:	00000c93          	li	s9,0
80000064:	00000d13          	li	s10,0
80000068:	00000d93          	li	s11,0
8000006c:	00000e13          	li	t3,0
80000070:	00000e93          	li	t4,0
80000074:	00000f13          	li	t5,0
80000078:	00000f93          	li	t6,0
8000007c:	0001e2b7          	lui	t0,0x1e
80000080:	60028293          	addi	t0,t0,1536 # 1e600 <buflen.1+0x1e5c0>
80000084:	3002a073          	csrs	mstatus,t0
80000088:	00100293          	li	t0,1
8000008c:	01f29293          	slli	t0,t0,0x1f
80000090:	0002ca63          	bltz	t0,800000a4 <_start+0xa4>
80000094:	00100513          	li	a0,1
80000098:	00001297          	auipc	t0,0x1
8000009c:	f6a2a423          	sw	a0,-152(t0) # 80001000 <tohost>
800000a0:	ff5ff06f          	j	80000094 <_start+0x94>
800000a4:	00000297          	auipc	t0,0x0
800000a8:	04428293          	addi	t0,t0,68 # 800000e8 <trap_entry>
800000ac:	30529073          	csrw	mtvec,t0
800000b0:	00005197          	auipc	gp,0x5
800000b4:	88818193          	addi	gp,gp,-1912 # 80004938 <__global_pointer$>
800000b8:	00004217          	auipc	tp,0x4
800000bc:	10720213          	addi	tp,tp,263 # 800041bf <_end+0x3f>
800000c0:	fc027213          	andi	tp,tp,-64
800000c4:	f1402573          	csrr	a0,mhartid
800000c8:	00100593          	li	a1,1
800000cc:	00b57063          	bgeu	a0,a1,800000cc <_start+0xcc>
800000d0:	00150113          	addi	sp,a0,1
800000d4:	01111113          	slli	sp,sp,0x11
800000d8:	00410133          	add	sp,sp,tp
800000dc:	01151613          	slli	a2,a0,0x11
800000e0:	00c20233          	add	tp,tp,a2
800000e4:	0e90206f          	j	800029cc <_init>

800000e8 <trap_entry>:
800000e8:	ef010113          	addi	sp,sp,-272
800000ec:	00112223          	sw	ra,4(sp)
800000f0:	00212423          	sw	sp,8(sp)
800000f4:	00312623          	sw	gp,12(sp)
800000f8:	00412823          	sw	tp,16(sp)
800000fc:	00512a23          	sw	t0,20(sp)
80000100:	00612c23          	sw	t1,24(sp)
80000104:	00712e23          	sw	t2,28(sp)
80000108:	02812023          	sw	s0,32(sp)
8000010c:	02912223          	sw	s1,36(sp)
80000110:	02a12423          	sw	a0,40(sp)
80000114:	02b12623          	sw	a1,44(sp)
80000118:	02c12823          	sw	a2,48(sp)
8000011c:	02d12a23          	sw	a3,52(sp)
80000120:	02e12c23          	sw	a4,56(sp)
80000124:	02f12e23          	sw	a5,60(sp)
80000128:	05012023          	sw	a6,64(sp)
8000012c:	05112223          	sw	a7,68(sp)
80000130:	05212423          	sw	s2,72(sp)
80000134:	05312623          	sw	s3,76(sp)
80000138:	05412823          	sw	s4,80(sp)
8000013c:	05512a23          	sw	s5,84(sp)
80000140:	05612c23          	sw	s6,88(sp)
80000144:	05712e23          	sw	s7,92(sp)
80000148:	07812023          	sw	s8,96(sp)
8000014c:	07912223          	sw	s9,100(sp)
80000150:	07a12423          	sw	s10,104(sp)
80000154:	07b12623          	sw	s11,108(sp)
80000158:	07c12823          	sw	t3,112(sp)
8000015c:	07d12a23          	sw	t4,116(sp)
80000160:	07e12c23          	sw	t5,120(sp)
80000164:	07f12e23          	sw	t6,124(sp)
80000168:	34202573          	csrr	a0,mcause
8000016c:	341025f3          	csrr	a1,mepc
80000170:	00010613          	mv	a2,sp
80000174:	4f4020ef          	jal	80002668 <handle_trap>
80000178:	34151073          	csrw	mepc,a0
8000017c:	000022b7          	lui	t0,0x2
80000180:	80028293          	addi	t0,t0,-2048 # 1800 <buflen.1+0x17c0>
80000184:	3002a073          	csrs	mstatus,t0
80000188:	00412083          	lw	ra,4(sp)
8000018c:	00812103          	lw	sp,8(sp)
80000190:	00c12183          	lw	gp,12(sp)
80000194:	01012203          	lw	tp,16(sp)
80000198:	01412283          	lw	t0,20(sp)
8000019c:	01812303          	lw	t1,24(sp)
800001a0:	01c12383          	lw	t2,28(sp)
800001a4:	02012403          	lw	s0,32(sp)
800001a8:	02412483          	lw	s1,36(sp)
800001ac:	02812503          	lw	a0,40(sp)
800001b0:	02c12583          	lw	a1,44(sp)
800001b4:	03012603          	lw	a2,48(sp)
800001b8:	03412683          	lw	a3,52(sp)
800001bc:	03812703          	lw	a4,56(sp)
800001c0:	03c12783          	lw	a5,60(sp)
800001c4:	04012803          	lw	a6,64(sp)
800001c8:	04412883          	lw	a7,68(sp)
800001cc:	04812903          	lw	s2,72(sp)
800001d0:	04c12983          	lw	s3,76(sp)
800001d4:	05012a03          	lw	s4,80(sp)
800001d8:	05412a83          	lw	s5,84(sp)
800001dc:	05812b03          	lw	s6,88(sp)
800001e0:	05c12b83          	lw	s7,92(sp)
800001e4:	06012c03          	lw	s8,96(sp)
800001e8:	06412c83          	lw	s9,100(sp)
800001ec:	06812d03          	lw	s10,104(sp)
800001f0:	06c12d83          	lw	s11,108(sp)
800001f4:	07012e03          	lw	t3,112(sp)
800001f8:	07412e83          	lw	t4,116(sp)
800001fc:	07812f03          	lw	t5,120(sp)
80000200:	07c12f83          	lw	t6,124(sp)
80000204:	11010113          	addi	sp,sp,272
80000208:	30200073          	mret

Disassembly of section .text:

80002000 <multiply>:
80002000:	00050713          	mv	a4,a0
80002004:	02000693          	li	a3,32
80002008:	00000513          	li	a0,0
8000200c:	01f71613          	slli	a2,a4,0x1f
80002010:	41f65793          	srai	a5,a2,0x1f
80002014:	00b7f7b3          	and	a5,a5,a1
80002018:	fff68693          	addi	a3,a3,-1
8000201c:	00f50533          	add	a0,a0,a5
80002020:	40175713          	srai	a4,a4,0x1
80002024:	00159593          	slli	a1,a1,0x1
80002028:	fe0692e3          	bnez	a3,8000200c <multiply+0xc>
8000202c:	00008067          	ret

80002030 <vprintfmt>:
80002030:	eb010113          	addi	sp,sp,-336
80002034:	14812423          	sw	s0,328(sp)
80002038:	14912223          	sw	s1,324(sp)
8000203c:	15212023          	sw	s2,320(sp)
80002040:	13512a23          	sw	s5,308(sp)
80002044:	14112623          	sw	ra,332(sp)
80002048:	13312e23          	sw	s3,316(sp)
8000204c:	13412c23          	sw	s4,312(sp)
80002050:	13712623          	sw	s7,300(sp)
80002054:	13812423          	sw	s8,296(sp)
80002058:	13912223          	sw	s9,292(sp)
8000205c:	13a12023          	sw	s10,288(sp)
80002060:	00050493          	mv	s1,a0
80002064:	00060413          	mv	s0,a2
80002068:	00d12623          	sw	a3,12(sp)
8000206c:	00058913          	mv	s2,a1
80002070:	02500a93          	li	s5,37
80002074:	0140006f          	j	80002088 <vprintfmt+0x58>
80002078:	06050463          	beqz	a0,800020e0 <vprintfmt+0xb0>
8000207c:	00090593          	mv	a1,s2
80002080:	00140413          	addi	s0,s0,1
80002084:	000480e7          	jalr	s1
80002088:	00044503          	lbu	a0,0(s0)
8000208c:	ff5516e3          	bne	a0,s5,80002078 <vprintfmt+0x48>
80002090:	00144683          	lbu	a3,1(s0)
80002094:	00140a13          	addi	s4,s0,1
80002098:	fff00993          	li	s3,-1
8000209c:	02000793          	li	a5,32
800020a0:	000a0713          	mv	a4,s4
800020a4:	00098c13          	mv	s8,s3
800020a8:	00f12423          	sw	a5,8(sp)
800020ac:	00000593          	li	a1,0
800020b0:	fdd68793          	addi	a5,a3,-35
800020b4:	0ff7f793          	zext.b	a5,a5
800020b8:	05500613          	li	a2,85
800020bc:	00170413          	addi	s0,a4,1
800020c0:	06f66a63          	bltu	a2,a5,80002134 <vprintfmt+0x104>
800020c4:	00002617          	auipc	a2,0x2
800020c8:	8b860613          	addi	a2,a2,-1864 # 8000397c <main+0x170>
800020cc:	00279793          	slli	a5,a5,0x2
800020d0:	00c787b3          	add	a5,a5,a2
800020d4:	0007a783          	lw	a5,0(a5)
800020d8:	00c787b3          	add	a5,a5,a2
800020dc:	00078067          	jr	a5
800020e0:	14c12083          	lw	ra,332(sp)
800020e4:	14812403          	lw	s0,328(sp)
800020e8:	14412483          	lw	s1,324(sp)
800020ec:	14012903          	lw	s2,320(sp)
800020f0:	13c12983          	lw	s3,316(sp)
800020f4:	13812a03          	lw	s4,312(sp)
800020f8:	13412a83          	lw	s5,308(sp)
800020fc:	12c12b83          	lw	s7,300(sp)
80002100:	12812c03          	lw	s8,296(sp)
80002104:	12412c83          	lw	s9,292(sp)
80002108:	12012d03          	lw	s10,288(sp)
8000210c:	15010113          	addi	sp,sp,336
80002110:	00008067          	ret
80002114:	00d12423          	sw	a3,8(sp)
80002118:	00174683          	lbu	a3,1(a4)
8000211c:	05500613          	li	a2,85
80002120:	00040713          	mv	a4,s0
80002124:	fdd68793          	addi	a5,a3,-35
80002128:	0ff7f793          	zext.b	a5,a5
8000212c:	00170413          	addi	s0,a4,1
80002130:	f8f67ae3          	bgeu	a2,a5,800020c4 <vprintfmt+0x94>
80002134:	00090593          	mv	a1,s2
80002138:	02500513          	li	a0,37
8000213c:	000480e7          	jalr	s1
80002140:	000a0413          	mv	s0,s4
80002144:	f45ff06f          	j	80002088 <vprintfmt+0x58>
80002148:	fd068993          	addi	s3,a3,-48
8000214c:	00174683          	lbu	a3,1(a4)
80002150:	00900513          	li	a0,9
80002154:	fd068793          	addi	a5,a3,-48
80002158:	38f56c63          	bltu	a0,a5,800024f0 <vprintfmt+0x4c0>
8000215c:	00068613          	mv	a2,a3
80002160:	00040713          	mv	a4,s0
80002164:	00299793          	slli	a5,s3,0x2
80002168:	013787b3          	add	a5,a5,s3
8000216c:	00170713          	addi	a4,a4,1
80002170:	00179793          	slli	a5,a5,0x1
80002174:	00c787b3          	add	a5,a5,a2
80002178:	00074603          	lbu	a2,0(a4)
8000217c:	fd078993          	addi	s3,a5,-48
80002180:	fd060793          	addi	a5,a2,-48
80002184:	00060693          	mv	a3,a2
80002188:	fcf57ee3          	bgeu	a0,a5,80002164 <vprintfmt+0x134>
8000218c:	f20c52e3          	bgez	s8,800020b0 <vprintfmt+0x80>
80002190:	00098c13          	mv	s8,s3
80002194:	fff00993          	li	s3,-1
80002198:	f19ff06f          	j	800020b0 <vprintfmt+0x80>
8000219c:	00174683          	lbu	a3,1(a4)
800021a0:	00040713          	mv	a4,s0
800021a4:	f0dff06f          	j	800020b0 <vprintfmt+0x80>
800021a8:	00090593          	mv	a1,s2
800021ac:	02500513          	li	a0,37
800021b0:	000480e7          	jalr	s1
800021b4:	ed5ff06f          	j	80002088 <vprintfmt+0x58>
800021b8:	00c12783          	lw	a5,12(sp)
800021bc:	00174683          	lbu	a3,1(a4)
800021c0:	00040713          	mv	a4,s0
800021c4:	0007a983          	lw	s3,0(a5)
800021c8:	00478793          	addi	a5,a5,4
800021cc:	00f12623          	sw	a5,12(sp)
800021d0:	fbdff06f          	j	8000218c <vprintfmt+0x15c>
800021d4:	00090593          	mv	a1,s2
800021d8:	03000513          	li	a0,48
800021dc:	13612823          	sw	s6,304(sp)
800021e0:	000480e7          	jalr	s1
800021e4:	00090593          	mv	a1,s2
800021e8:	07800513          	li	a0,120
800021ec:	000480e7          	jalr	s1
800021f0:	01000b93          	li	s7,16
800021f4:	00000d13          	li	s10,0
800021f8:	00c12783          	lw	a5,12(sp)
800021fc:	00000c93          	li	s9,0
80002200:	0007a983          	lw	s3,0(a5)
80002204:	00478793          	addi	a5,a5,4
80002208:	00f12623          	sw	a5,12(sp)
8000220c:	000b8613          	mv	a2,s7
80002210:	00000693          	li	a3,0
80002214:	00098513          	mv	a0,s3
80002218:	000c8593          	mv	a1,s9
8000221c:	775000ef          	jal	80003190 <__umoddi3>
80002220:	00a12823          	sw	a0,16(sp)
80002224:	219d0463          	beq	s10,s9,8000242c <vprintfmt+0x3fc>
80002228:	11b12e23          	sw	s11,284(sp)
8000222c:	00100b13          	li	s6,1
80002230:	01410d93          	addi	s11,sp,20
80002234:	00098513          	mv	a0,s3
80002238:	000c8593          	mv	a1,s9
8000223c:	000b8613          	mv	a2,s7
80002240:	00000693          	li	a3,0
80002244:	199000ef          	jal	80002bdc <__udivdi3>
80002248:	000b8613          	mv	a2,s7
8000224c:	00000693          	li	a3,0
80002250:	00050993          	mv	s3,a0
80002254:	00058c93          	mv	s9,a1
80002258:	739000ef          	jal	80003190 <__umoddi3>
8000225c:	00ada023          	sw	a0,0(s11)
80002260:	000b0a13          	mv	s4,s6
80002264:	004d8d93          	addi	s11,s11,4
80002268:	001b0b13          	addi	s6,s6,1
8000226c:	fd9d14e3          	bne	s10,s9,80002234 <vprintfmt+0x204>
80002270:	fd79f2e3          	bgeu	s3,s7,80002234 <vprintfmt+0x204>
80002274:	11c12d83          	lw	s11,284(sp)
80002278:	fffc0b93          	addi	s7,s8,-1
8000227c:	fffb0993          	addi	s3,s6,-1
80002280:	018b5c63          	bge	s6,s8,80002298 <vprintfmt+0x268>
80002284:	00812503          	lw	a0,8(sp)
80002288:	00090593          	mv	a1,s2
8000228c:	fffb8b93          	addi	s7,s7,-1
80002290:	000480e7          	jalr	s1
80002294:	ff7998e3          	bne	s3,s7,80002284 <vprintfmt+0x254>
80002298:	002a1a13          	slli	s4,s4,0x2
8000229c:	01010993          	addi	s3,sp,16
800022a0:	013a0a33          	add	s4,s4,s3
800022a4:	00900b13          	li	s6,9
800022a8:	0080006f          	j	800022b0 <vprintfmt+0x280>
800022ac:	ffca0a13          	addi	s4,s4,-4
800022b0:	000a2783          	lw	a5,0(s4)
800022b4:	03000513          	li	a0,48
800022b8:	00fb7463          	bgeu	s6,a5,800022c0 <vprintfmt+0x290>
800022bc:	05700513          	li	a0,87
800022c0:	00a78533          	add	a0,a5,a0
800022c4:	00090593          	mv	a1,s2
800022c8:	000480e7          	jalr	s1
800022cc:	ff4990e3          	bne	s3,s4,800022ac <vprintfmt+0x27c>
800022d0:	13012b03          	lw	s6,304(sp)
800022d4:	db5ff06f          	j	80002088 <vprintfmt+0x58>
800022d8:	13612823          	sw	s6,304(sp)
800022dc:	00100793          	li	a5,1
800022e0:	14b7ce63          	blt	a5,a1,8000243c <vprintfmt+0x40c>
800022e4:	00c12783          	lw	a5,12(sp)
800022e8:	0007a983          	lw	s3,0(a5)
800022ec:	00478793          	addi	a5,a5,4
800022f0:	00f12623          	sw	a5,12(sp)
800022f4:	41f9dc93          	srai	s9,s3,0x1f
800022f8:	020cd063          	bgez	s9,80002318 <vprintfmt+0x2e8>
800022fc:	00090593          	mv	a1,s2
80002300:	02d00513          	li	a0,45
80002304:	000480e7          	jalr	s1
80002308:	01303733          	snez	a4,s3
8000230c:	419007b3          	neg	a5,s9
80002310:	40e78cb3          	sub	s9,a5,a4
80002314:	413009b3          	neg	s3,s3
80002318:	00a00b93          	li	s7,10
8000231c:	00000d13          	li	s10,0
80002320:	eedff06f          	j	8000220c <vprintfmt+0x1dc>
80002324:	00174683          	lbu	a3,1(a4)
80002328:	00158593          	addi	a1,a1,1
8000232c:	00040713          	mv	a4,s0
80002330:	d81ff06f          	j	800020b0 <vprintfmt+0x80>
80002334:	13612823          	sw	s6,304(sp)
80002338:	01000b93          	li	s7,16
8000233c:	00000d13          	li	s10,0
80002340:	00100793          	li	a5,1
80002344:	eab7dae3          	bge	a5,a1,800021f8 <vprintfmt+0x1c8>
80002348:	00c12783          	lw	a5,12(sp)
8000234c:	00778793          	addi	a5,a5,7
80002350:	ff87f793          	andi	a5,a5,-8
80002354:	00878713          	addi	a4,a5,8
80002358:	0007a983          	lw	s3,0(a5)
8000235c:	0047ac83          	lw	s9,4(a5)
80002360:	00e12623          	sw	a4,12(sp)
80002364:	ea9ff06f          	j	8000220c <vprintfmt+0x1dc>
80002368:	00c12783          	lw	a5,12(sp)
8000236c:	01802733          	sgtz	a4,s8
80002370:	11b12e23          	sw	s11,284(sp)
80002374:	0007aa03          	lw	s4,0(a5)
80002378:	00812783          	lw	a5,8(sp)
8000237c:	fd378793          	addi	a5,a5,-45
80002380:	00f037b3          	snez	a5,a5
80002384:	00f77733          	and	a4,a4,a5
80002388:	00c12783          	lw	a5,12(sp)
8000238c:	00478d93          	addi	s11,a5,4
80002390:	0e0a0663          	beqz	s4,8000247c <vprintfmt+0x44c>
80002394:	10071663          	bnez	a4,800024a0 <vprintfmt+0x470>
80002398:	000a4503          	lbu	a0,0(s4)
8000239c:	02050a63          	beqz	a0,800023d0 <vprintfmt+0x3a0>
800023a0:	13612823          	sw	s6,304(sp)
800023a4:	fff00b13          	li	s6,-1
800023a8:	0009c663          	bltz	s3,800023b4 <vprintfmt+0x384>
800023ac:	fff98993          	addi	s3,s3,-1
800023b0:	01698e63          	beq	s3,s6,800023cc <vprintfmt+0x39c>
800023b4:	00090593          	mv	a1,s2
800023b8:	000480e7          	jalr	s1
800023bc:	001a4503          	lbu	a0,1(s4)
800023c0:	001a0a13          	addi	s4,s4,1
800023c4:	fffc0c13          	addi	s8,s8,-1
800023c8:	fe0510e3          	bnez	a0,800023a8 <vprintfmt+0x378>
800023cc:	13012b03          	lw	s6,304(sp)
800023d0:	01805c63          	blez	s8,800023e8 <vprintfmt+0x3b8>
800023d4:	00090593          	mv	a1,s2
800023d8:	02000513          	li	a0,32
800023dc:	fffc0c13          	addi	s8,s8,-1
800023e0:	000480e7          	jalr	s1
800023e4:	fe0c18e3          	bnez	s8,800023d4 <vprintfmt+0x3a4>
800023e8:	01b12623          	sw	s11,12(sp)
800023ec:	11c12d83          	lw	s11,284(sp)
800023f0:	c99ff06f          	j	80002088 <vprintfmt+0x58>
800023f4:	fffc4793          	not	a5,s8
800023f8:	41f7d793          	srai	a5,a5,0x1f
800023fc:	00174683          	lbu	a3,1(a4)
80002400:	00fc7c33          	and	s8,s8,a5
80002404:	00040713          	mv	a4,s0
80002408:	ca9ff06f          	j	800020b0 <vprintfmt+0x80>
8000240c:	00c12783          	lw	a5,12(sp)
80002410:	00090593          	mv	a1,s2
80002414:	0007a503          	lw	a0,0(a5)
80002418:	000480e7          	jalr	s1
8000241c:	00c12783          	lw	a5,12(sp)
80002420:	00478793          	addi	a5,a5,4
80002424:	00f12623          	sw	a5,12(sp)
80002428:	c61ff06f          	j	80002088 <vprintfmt+0x58>
8000242c:	df79fee3          	bgeu	s3,s7,80002228 <vprintfmt+0x1f8>
80002430:	00000a13          	li	s4,0
80002434:	00100b13          	li	s6,1
80002438:	e41ff06f          	j	80002278 <vprintfmt+0x248>
8000243c:	00c12783          	lw	a5,12(sp)
80002440:	00778793          	addi	a5,a5,7
80002444:	ff87f793          	andi	a5,a5,-8
80002448:	00878713          	addi	a4,a5,8
8000244c:	0007a983          	lw	s3,0(a5)
80002450:	0047ac83          	lw	s9,4(a5)
80002454:	00e12623          	sw	a4,12(sp)
80002458:	ea1ff06f          	j	800022f8 <vprintfmt+0x2c8>
8000245c:	13612823          	sw	s6,304(sp)
80002460:	00a00b93          	li	s7,10
80002464:	00000d13          	li	s10,0
80002468:	ed9ff06f          	j	80002340 <vprintfmt+0x310>
8000246c:	13612823          	sw	s6,304(sp)
80002470:	00800b93          	li	s7,8
80002474:	00000d13          	li	s10,0
80002478:	ec9ff06f          	j	80002340 <vprintfmt+0x310>
8000247c:	00071e63          	bnez	a4,80002498 <vprintfmt+0x468>
80002480:	13612823          	sw	s6,304(sp)
80002484:	00001a17          	auipc	s4,0x1
80002488:	4b4a0a13          	addi	s4,s4,1204 # 80003938 <main+0x12c>
8000248c:	02800513          	li	a0,40
80002490:	fff00b13          	li	s6,-1
80002494:	f15ff06f          	j	800023a8 <vprintfmt+0x378>
80002498:	00001a17          	auipc	s4,0x1
8000249c:	4a0a0a13          	addi	s4,s4,1184 # 80003938 <main+0x12c>
800024a0:	000a0793          	mv	a5,s4
800024a4:	013a06b3          	add	a3,s4,s3
800024a8:	00099863          	bnez	s3,800024b8 <vprintfmt+0x488>
800024ac:	0200006f          	j	800024cc <vprintfmt+0x49c>
800024b0:	00178793          	addi	a5,a5,1
800024b4:	00d78663          	beq	a5,a3,800024c0 <vprintfmt+0x490>
800024b8:	0007c703          	lbu	a4,0(a5)
800024bc:	fe071ae3          	bnez	a4,800024b0 <vprintfmt+0x480>
800024c0:	414787b3          	sub	a5,a5,s4
800024c4:	40fc0c33          	sub	s8,s8,a5
800024c8:	01805c63          	blez	s8,800024e0 <vprintfmt+0x4b0>
800024cc:	00812503          	lw	a0,8(sp)
800024d0:	00090593          	mv	a1,s2
800024d4:	fffc0c13          	addi	s8,s8,-1
800024d8:	000480e7          	jalr	s1
800024dc:	fe0c18e3          	bnez	s8,800024cc <vprintfmt+0x49c>
800024e0:	000a4503          	lbu	a0,0(s4)
800024e4:	f00502e3          	beqz	a0,800023e8 <vprintfmt+0x3b8>
800024e8:	13612823          	sw	s6,304(sp)
800024ec:	eb9ff06f          	j	800023a4 <vprintfmt+0x374>
800024f0:	00040713          	mv	a4,s0
800024f4:	c99ff06f          	j	8000218c <vprintfmt+0x15c>

800024f8 <sprintf_putch.0>:
800024f8:	0005a783          	lw	a5,0(a1)
800024fc:	00a78023          	sb	a0,0(a5)
80002500:	0005a783          	lw	a5,0(a1)
80002504:	00178793          	addi	a5,a5,1
80002508:	00f5a023          	sw	a5,0(a1)
8000250c:	00008067          	ret

80002510 <putchar>:
80002510:	04022703          	lw	a4,64(tp) # 40 <buflen.1>
80002514:	00020793          	mv	a5,tp
80002518:	f8010113          	addi	sp,sp,-128
8000251c:	00e787b3          	add	a5,a5,a4
80002520:	00170813          	addi	a6,a4,1
80002524:	00a78023          	sb	a0,0(a5)
80002528:	05022023          	sw	a6,64(tp) # 40 <buflen.1>
8000252c:	ff650513          	addi	a0,a0,-10
80002530:	03f10693          	addi	a3,sp,63
80002534:	fc06f693          	andi	a3,a3,-64
80002538:	00050c63          	beqz	a0,80002550 <putchar+0x40>
8000253c:	fc170713          	addi	a4,a4,-63
80002540:	00070863          	beqz	a4,80002550 <putchar+0x40>
80002544:	00000513          	li	a0,0
80002548:	08010113          	addi	sp,sp,128
8000254c:	00008067          	ret
80002550:	04000713          	li	a4,64
80002554:	00e6a023          	sw	a4,0(a3)
80002558:	00000793          	li	a5,0
8000255c:	00f6a223          	sw	a5,4(a3)
80002560:	00100e13          	li	t3,1
80002564:	01c6a423          	sw	t3,8(a3)
80002568:	00000e93          	li	t4,0
8000256c:	01d6a623          	sw	t4,12(a3)
80002570:	00020313          	mv	t1,tp
80002574:	0066a823          	sw	t1,16(a3)
80002578:	00000393          	li	t2,0
8000257c:	0076aa23          	sw	t2,20(a3)
80002580:	0106ac23          	sw	a6,24(a3)
80002584:	41f85793          	srai	a5,a6,0x1f
80002588:	00f6ae23          	sw	a5,28(a3)
8000258c:	0330000f          	fence	rw,rw
80002590:	fffff617          	auipc	a2,0xfffff
80002594:	a7060613          	addi	a2,a2,-1424 # 80001000 <tohost>
80002598:	00d62023          	sw	a3,0(a2)
8000259c:	00000793          	li	a5,0
800025a0:	00f62223          	sw	a5,4(a2)
800025a4:	fffff617          	auipc	a2,0xfffff
800025a8:	a9c60613          	addi	a2,a2,-1380 # 80001040 <fromhost>
800025ac:	00062703          	lw	a4,0(a2)
800025b0:	00462783          	lw	a5,4(a2)
800025b4:	00f76733          	or	a4,a4,a5
800025b8:	fe070ae3          	beqz	a4,800025ac <putchar+0x9c>
800025bc:	00000793          	li	a5,0
800025c0:	00f62023          	sw	a5,0(a2)
800025c4:	00000813          	li	a6,0
800025c8:	01062223          	sw	a6,4(a2)
800025cc:	0330000f          	fence	rw,rw
800025d0:	04022023          	sw	zero,64(tp) # 40 <buflen.1>
800025d4:	0006a703          	lw	a4,0(a3)
800025d8:	00000513          	li	a0,0
800025dc:	0046a783          	lw	a5,4(a3)
800025e0:	08010113          	addi	sp,sp,128
800025e4:	00008067          	ret

800025e8 <setStats>:
800025e8:	b0002773          	csrr	a4,mcycle
800025ec:	00002797          	auipc	a5,0x2
800025f0:	b5478793          	addi	a5,a5,-1196 # 80004140 <counters>
800025f4:	00050a63          	beqz	a0,80002608 <setStats+0x20>
800025f8:	00e7a023          	sw	a4,0(a5)
800025fc:	b0202773          	csrr	a4,minstret
80002600:	00e7a223          	sw	a4,4(a5)
80002604:	00008067          	ret
80002608:	0007a683          	lw	a3,0(a5)
8000260c:	00001617          	auipc	a2,0x1
80002610:	33860613          	addi	a2,a2,824 # 80003944 <main+0x138>
80002614:	00002597          	auipc	a1,0x2
80002618:	b2c5a223          	sw	a2,-1244(a1) # 80004138 <counter_names>
8000261c:	40d70733          	sub	a4,a4,a3
80002620:	00e7a023          	sw	a4,0(a5)
80002624:	b0202773          	csrr	a4,minstret
80002628:	0047a683          	lw	a3,4(a5)
8000262c:	00001617          	auipc	a2,0x1
80002630:	32060613          	addi	a2,a2,800 # 8000394c <main+0x140>
80002634:	00002597          	auipc	a1,0x2
80002638:	b0c5a423          	sw	a2,-1272(a1) # 8000413c <counter_names+0x4>
8000263c:	40d70733          	sub	a4,a4,a3
80002640:	00e7a223          	sw	a4,4(a5)
80002644:	00008067          	ret

80002648 <tohost_exit>:
80002648:	00151693          	slli	a3,a0,0x1
8000264c:	0016e713          	ori	a4,a3,1
80002650:	fffff697          	auipc	a3,0xfffff
80002654:	9b068693          	addi	a3,a3,-1616 # 80001000 <tohost>
80002658:	00000793          	li	a5,0
8000265c:	00e6a023          	sw	a4,0(a3)
80002660:	00f6a223          	sw	a5,4(a3)
80002664:	0000006f          	j	80002664 <tohost_exit+0x1c>

80002668 <handle_trap>:
80002668:	00001637          	lui	a2,0x1
8000266c:	fffff797          	auipc	a5,0xfffff
80002670:	99478793          	addi	a5,a5,-1644 # 80001000 <tohost>
80002674:	a7360613          	addi	a2,a2,-1421 # a73 <buflen.1+0xa33>
80002678:	00000693          	li	a3,0
8000267c:	00c7a023          	sw	a2,0(a5)
80002680:	00d7a223          	sw	a3,4(a5)
80002684:	0000006f          	j	80002684 <handle_trap+0x1c>

80002688 <exit>:
80002688:	ff010113          	addi	sp,sp,-16
8000268c:	00112623          	sw	ra,12(sp)
80002690:	fb9ff0ef          	jal	80002648 <tohost_exit>

80002694 <abort>:
80002694:	fffff797          	auipc	a5,0xfffff
80002698:	96c78793          	addi	a5,a5,-1684 # 80001000 <tohost>
8000269c:	10d00613          	li	a2,269
800026a0:	00000693          	li	a3,0
800026a4:	00c7a023          	sw	a2,0(a5)
800026a8:	00d7a223          	sw	a3,4(a5)
800026ac:	0000006f          	j	800026ac <abort+0x18>

800026b0 <printstr>:
800026b0:	00054783          	lbu	a5,0(a0)
800026b4:	f8010113          	addi	sp,sp,-128
800026b8:	03f10613          	addi	a2,sp,63
800026bc:	00050813          	mv	a6,a0
800026c0:	00000893          	li	a7,0
800026c4:	fc067613          	andi	a2,a2,-64
800026c8:	0a078063          	beqz	a5,80002768 <printstr+0xb8>
800026cc:	00050793          	mv	a5,a0
800026d0:	0017c703          	lbu	a4,1(a5)
800026d4:	00178793          	addi	a5,a5,1
800026d8:	fe071ce3          	bnez	a4,800026d0 <printstr+0x20>
800026dc:	40a78333          	sub	t1,a5,a0
800026e0:	00000393          	li	t2,0
800026e4:	04000713          	li	a4,64
800026e8:	00e62023          	sw	a4,0(a2)
800026ec:	00000793          	li	a5,0
800026f0:	00f62223          	sw	a5,4(a2)
800026f4:	00100713          	li	a4,1
800026f8:	00e62423          	sw	a4,8(a2)
800026fc:	00000793          	li	a5,0
80002700:	00f62623          	sw	a5,12(a2)
80002704:	01062823          	sw	a6,16(a2)
80002708:	01162a23          	sw	a7,20(a2)
8000270c:	00662c23          	sw	t1,24(a2)
80002710:	00762e23          	sw	t2,28(a2)
80002714:	0330000f          	fence	rw,rw
80002718:	fffff697          	auipc	a3,0xfffff
8000271c:	8e868693          	addi	a3,a3,-1816 # 80001000 <tohost>
80002720:	00c6a023          	sw	a2,0(a3)
80002724:	00000793          	li	a5,0
80002728:	00f6a223          	sw	a5,4(a3)
8000272c:	fffff697          	auipc	a3,0xfffff
80002730:	91468693          	addi	a3,a3,-1772 # 80001040 <fromhost>
80002734:	0006a703          	lw	a4,0(a3)
80002738:	0046a783          	lw	a5,4(a3)
8000273c:	00f76733          	or	a4,a4,a5
80002740:	fe070ae3          	beqz	a4,80002734 <printstr+0x84>
80002744:	00000793          	li	a5,0
80002748:	00f6a023          	sw	a5,0(a3)
8000274c:	00000813          	li	a6,0
80002750:	0106a223          	sw	a6,4(a3)
80002754:	0330000f          	fence	rw,rw
80002758:	00062703          	lw	a4,0(a2)
8000275c:	00462783          	lw	a5,4(a2)
80002760:	08010113          	addi	sp,sp,128
80002764:	00008067          	ret
80002768:	00000313          	li	t1,0
8000276c:	00000393          	li	t2,0
80002770:	f75ff06f          	j	800026e4 <printstr+0x34>

80002774 <thread_entry>:
80002774:	00051463          	bnez	a0,8000277c <thread_entry+0x8>
80002778:	00008067          	ret
8000277c:	0000006f          	j	8000277c <thread_entry+0x8>

80002780 <printhex>:
80002780:	fd010113          	addi	sp,sp,-48
80002784:	00050713          	mv	a4,a0
80002788:	02112623          	sw	ra,44(sp)
8000278c:	00c10513          	addi	a0,sp,12
80002790:	01b10613          	addi	a2,sp,27
80002794:	00900813          	li	a6,9
80002798:	0080006f          	j	800027a0 <printhex+0x20>
8000279c:	fff60613          	addi	a2,a2,-1
800027a0:	00f77693          	andi	a3,a4,15
800027a4:	00d837b3          	sltu	a5,a6,a3
800027a8:	40f007b3          	neg	a5,a5
800027ac:	0277f793          	andi	a5,a5,39
800027b0:	03078793          	addi	a5,a5,48
800027b4:	00f686b3          	add	a3,a3,a5
800027b8:	00475713          	srli	a4,a4,0x4
800027bc:	01c59793          	slli	a5,a1,0x1c
800027c0:	00d60023          	sb	a3,0(a2)
800027c4:	00e78733          	add	a4,a5,a4
800027c8:	0045d593          	srli	a1,a1,0x4
800027cc:	fcc518e3          	bne	a0,a2,8000279c <printhex+0x1c>
800027d0:	00010e23          	sb	zero,28(sp)
800027d4:	eddff0ef          	jal	800026b0 <printstr>
800027d8:	02c12083          	lw	ra,44(sp)
800027dc:	03010113          	addi	sp,sp,48
800027e0:	00008067          	ret

800027e4 <printf>:
800027e4:	fc010113          	addi	sp,sp,-64
800027e8:	02410313          	addi	t1,sp,36
800027ec:	02b12223          	sw	a1,36(sp)
800027f0:	02c12423          	sw	a2,40(sp)
800027f4:	02d12623          	sw	a3,44(sp)
800027f8:	00050613          	mv	a2,a0
800027fc:	00030693          	mv	a3,t1
80002800:	00000517          	auipc	a0,0x0
80002804:	d1050513          	addi	a0,a0,-752 # 80002510 <putchar>
80002808:	00000593          	li	a1,0
8000280c:	00112e23          	sw	ra,28(sp)
80002810:	02e12823          	sw	a4,48(sp)
80002814:	02f12a23          	sw	a5,52(sp)
80002818:	03012c23          	sw	a6,56(sp)
8000281c:	03112e23          	sw	a7,60(sp)
80002820:	00612623          	sw	t1,12(sp)
80002824:	80dff0ef          	jal	80002030 <vprintfmt>
80002828:	01c12083          	lw	ra,28(sp)
8000282c:	00000513          	li	a0,0
80002830:	04010113          	addi	sp,sp,64
80002834:	00008067          	ret

80002838 <sprintf>:
80002838:	fb010113          	addi	sp,sp,-80
8000283c:	03810313          	addi	t1,sp,56
80002840:	02812423          	sw	s0,40(sp)
80002844:	00a12623          	sw	a0,12(sp)
80002848:	02c12c23          	sw	a2,56(sp)
8000284c:	02d12e23          	sw	a3,60(sp)
80002850:	00050413          	mv	s0,a0
80002854:	00058613          	mv	a2,a1
80002858:	00000517          	auipc	a0,0x0
8000285c:	ca050513          	addi	a0,a0,-864 # 800024f8 <sprintf_putch.0>
80002860:	00c10593          	addi	a1,sp,12
80002864:	00030693          	mv	a3,t1
80002868:	02112623          	sw	ra,44(sp)
8000286c:	04f12223          	sw	a5,68(sp)
80002870:	04e12023          	sw	a4,64(sp)
80002874:	05012423          	sw	a6,72(sp)
80002878:	05112623          	sw	a7,76(sp)
8000287c:	00612e23          	sw	t1,28(sp)
80002880:	fb0ff0ef          	jal	80002030 <vprintfmt>
80002884:	00c12783          	lw	a5,12(sp)
80002888:	00078023          	sb	zero,0(a5)
8000288c:	00c12503          	lw	a0,12(sp)
80002890:	02c12083          	lw	ra,44(sp)
80002894:	40850533          	sub	a0,a0,s0
80002898:	02812403          	lw	s0,40(sp)
8000289c:	05010113          	addi	sp,sp,80
800028a0:	00008067          	ret

800028a4 <memcpy>:
800028a4:	00c5e7b3          	or	a5,a1,a2
800028a8:	00f567b3          	or	a5,a0,a5
800028ac:	0037f793          	andi	a5,a5,3
800028b0:	00058393          	mv	t2,a1
800028b4:	00c506b3          	add	a3,a0,a2
800028b8:	02078463          	beqz	a5,800028e0 <memcpy+0x3c>
800028bc:	00c58633          	add	a2,a1,a2
800028c0:	00050793          	mv	a5,a0
800028c4:	0ad57263          	bgeu	a0,a3,80002968 <memcpy+0xc4>
800028c8:	0005c703          	lbu	a4,0(a1)
800028cc:	00158593          	addi	a1,a1,1
800028d0:	00178793          	addi	a5,a5,1
800028d4:	fee78fa3          	sb	a4,-1(a5)
800028d8:	fec598e3          	bne	a1,a2,800028c8 <memcpy+0x24>
800028dc:	00008067          	ret
800028e0:	02050713          	addi	a4,a0,32
800028e4:	08d77463          	bgeu	a4,a3,8000296c <memcpy+0xc8>
800028e8:	00070793          	mv	a5,a4
800028ec:	0005a283          	lw	t0,0(a1)
800028f0:	0045af83          	lw	t6,4(a1)
800028f4:	0085af03          	lw	t5,8(a1)
800028f8:	00c5ae83          	lw	t4,12(a1)
800028fc:	0105ae03          	lw	t3,16(a1)
80002900:	0145a303          	lw	t1,20(a1)
80002904:	0185a883          	lw	a7,24(a1)
80002908:	01c5a803          	lw	a6,28(a1)
8000290c:	02078793          	addi	a5,a5,32
80002910:	fc57a023          	sw	t0,-64(a5)
80002914:	fdf7a223          	sw	t6,-60(a5)
80002918:	fde7a423          	sw	t5,-56(a5)
8000291c:	fdd7a623          	sw	t4,-52(a5)
80002920:	fdc7a823          	sw	t3,-48(a5)
80002924:	fc67aa23          	sw	t1,-44(a5)
80002928:	fd17ac23          	sw	a7,-40(a5)
8000292c:	fd07ae23          	sw	a6,-36(a5)
80002930:	02058593          	addi	a1,a1,32
80002934:	fad7ece3          	bltu	a5,a3,800028ec <memcpy+0x48>
80002938:	fdf60613          	addi	a2,a2,-33
8000293c:	fe067613          	andi	a2,a2,-32
80002940:	02038393          	addi	t2,t2,32
80002944:	00c707b3          	add	a5,a4,a2
80002948:	00c385b3          	add	a1,t2,a2
8000294c:	f8d7f8e3          	bgeu	a5,a3,800028dc <memcpy+0x38>
80002950:	0005a703          	lw	a4,0(a1)
80002954:	00478793          	addi	a5,a5,4
80002958:	00458593          	addi	a1,a1,4
8000295c:	fee7ae23          	sw	a4,-4(a5)
80002960:	fed7e8e3          	bltu	a5,a3,80002950 <memcpy+0xac>
80002964:	00008067          	ret
80002968:	00008067          	ret
8000296c:	00050793          	mv	a5,a0
80002970:	fddff06f          	j	8000294c <memcpy+0xa8>

80002974 <memset>:
80002974:	00c567b3          	or	a5,a0,a2
80002978:	0037f793          	andi	a5,a5,3
8000297c:	00c50633          	add	a2,a0,a2
80002980:	00078e63          	beqz	a5,8000299c <memset+0x28>
80002984:	00050793          	mv	a5,a0
80002988:	04c57063          	bgeu	a0,a2,800029c8 <memset+0x54>
8000298c:	00178793          	addi	a5,a5,1
80002990:	feb78fa3          	sb	a1,-1(a5)
80002994:	fef61ce3          	bne	a2,a5,8000298c <memset+0x18>
80002998:	00008067          	ret
8000299c:	fec57ee3          	bgeu	a0,a2,80002998 <memset+0x24>
800029a0:	0ff5f593          	zext.b	a1,a1
800029a4:	00859713          	slli	a4,a1,0x8
800029a8:	00b70733          	add	a4,a4,a1
800029ac:	01071793          	slli	a5,a4,0x10
800029b0:	00f70733          	add	a4,a4,a5
800029b4:	00050793          	mv	a5,a0
800029b8:	00478793          	addi	a5,a5,4
800029bc:	fee7ae23          	sw	a4,-4(a5)
800029c0:	fec7ece3          	bltu	a5,a2,800029b8 <memset+0x44>
800029c4:	00008067          	ret
800029c8:	00008067          	ret

800029cc <_init>:
800029cc:	f6010113          	addi	sp,sp,-160
800029d0:	00001797          	auipc	a5,0x1
800029d4:	77878793          	addi	a5,a5,1912 # 80004148 <_tdata_begin>
800029d8:	08812c23          	sw	s0,152(sp)
800029dc:	00001417          	auipc	s0,0x1
800029e0:	76c40413          	addi	s0,s0,1900 # 80004148 <_tdata_begin>
800029e4:	08912a23          	sw	s1,148(sp)
800029e8:	40f404b3          	sub	s1,s0,a5
800029ec:	00048613          	mv	a2,s1
800029f0:	09312623          	sw	s3,140(sp)
800029f4:	09412423          	sw	s4,136(sp)
800029f8:	00050993          	mv	s3,a0
800029fc:	00058a13          	mv	s4,a1
80002a00:	00020513          	mv	a0,tp
80002a04:	00078593          	mv	a1,a5
80002a08:	08112e23          	sw	ra,156(sp)
80002a0c:	09212823          	sw	s2,144(sp)
80002a10:	09512223          	sw	s5,132(sp)
80002a14:	00020a93          	mv	s5,tp
80002a18:	e8dff0ef          	jal	800028a4 <memcpy>
80002a1c:	00001617          	auipc	a2,0x1
80002a20:	7a860613          	addi	a2,a2,1960 # 800041c4 <_tbss_end>
80002a24:	40860633          	sub	a2,a2,s0
80002a28:	009a8533          	add	a0,s5,s1
80002a2c:	00000593          	li	a1,0
80002a30:	f45ff0ef          	jal	80002974 <memset>
80002a34:	000a0593          	mv	a1,s4
80002a38:	00098513          	mv	a0,s3
80002a3c:	d39ff0ef          	jal	80002774 <thread_entry>
80002a40:	03f10913          	addi	s2,sp,63
80002a44:	00000593          	li	a1,0
80002a48:	00000513          	li	a0,0
80002a4c:	fc097913          	andi	s2,s2,-64
80002a50:	5bd000ef          	jal	8000380c <main>
80002a54:	00050a93          	mv	s5,a0
80002a58:	00090993          	mv	s3,s2
80002a5c:	00001417          	auipc	s0,0x1
80002a60:	6e440413          	addi	s0,s0,1764 # 80004140 <counters>
80002a64:	00001497          	auipc	s1,0x1
80002a68:	6d448493          	addi	s1,s1,1748 # 80004138 <counter_names>
80002a6c:	00001a17          	auipc	s4,0x1
80002a70:	6dca0a13          	addi	s4,s4,1756 # 80004148 <_tdata_begin>
80002a74:	00042683          	lw	a3,0(s0)
80002a78:	02069263          	bnez	a3,80002a9c <_init+0xd0>
80002a7c:	00440413          	addi	s0,s0,4
80002a80:	00448493          	addi	s1,s1,4
80002a84:	ff4418e3          	bne	s0,s4,80002a74 <_init+0xa8>
80002a88:	01390663          	beq	s2,s3,80002a94 <_init+0xc8>
80002a8c:	00090513          	mv	a0,s2
80002a90:	c21ff0ef          	jal	800026b0 <printstr>
80002a94:	000a8513          	mv	a0,s5
80002a98:	bb1ff0ef          	jal	80002648 <tohost_exit>
80002a9c:	0004a603          	lw	a2,0(s1)
80002aa0:	00098513          	mv	a0,s3
80002aa4:	00001597          	auipc	a1,0x1
80002aa8:	ecc58593          	addi	a1,a1,-308 # 80003970 <main+0x164>
80002aac:	d8dff0ef          	jal	80002838 <sprintf>
80002ab0:	00a989b3          	add	s3,s3,a0
80002ab4:	fc9ff06f          	j	80002a7c <_init+0xb0>

80002ab8 <strlen>:
80002ab8:	00054783          	lbu	a5,0(a0)
80002abc:	00078e63          	beqz	a5,80002ad8 <strlen+0x20>
80002ac0:	00050793          	mv	a5,a0
80002ac4:	0017c703          	lbu	a4,1(a5)
80002ac8:	00178793          	addi	a5,a5,1
80002acc:	fe071ce3          	bnez	a4,80002ac4 <strlen+0xc>
80002ad0:	40a78533          	sub	a0,a5,a0
80002ad4:	00008067          	ret
80002ad8:	00000513          	li	a0,0
80002adc:	00008067          	ret

80002ae0 <strnlen>:
80002ae0:	00b506b3          	add	a3,a0,a1
80002ae4:	00050793          	mv	a5,a0
80002ae8:	00059863          	bnez	a1,80002af8 <strnlen+0x18>
80002aec:	01c0006f          	j	80002b08 <strnlen+0x28>
80002af0:	00178793          	addi	a5,a5,1
80002af4:	00d78663          	beq	a5,a3,80002b00 <strnlen+0x20>
80002af8:	0007c703          	lbu	a4,0(a5)
80002afc:	fe071ae3          	bnez	a4,80002af0 <strnlen+0x10>
80002b00:	40a78533          	sub	a0,a5,a0
80002b04:	00008067          	ret
80002b08:	00000513          	li	a0,0
80002b0c:	00008067          	ret

80002b10 <strcmp>:
80002b10:	00050713          	mv	a4,a0
80002b14:	00074783          	lbu	a5,0(a4)
80002b18:	0005c683          	lbu	a3,0(a1)
80002b1c:	00170713          	addi	a4,a4,1
80002b20:	00158593          	addi	a1,a1,1
80002b24:	40d78533          	sub	a0,a5,a3
80002b28:	00078663          	beqz	a5,80002b34 <strcmp+0x24>
80002b2c:	fed784e3          	beq	a5,a3,80002b14 <strcmp+0x4>
80002b30:	00008067          	ret
80002b34:	00008067          	ret

80002b38 <strcpy>:
80002b38:	00050793          	mv	a5,a0
80002b3c:	0005c703          	lbu	a4,0(a1)
80002b40:	00158593          	addi	a1,a1,1
80002b44:	00178793          	addi	a5,a5,1
80002b48:	fee78fa3          	sb	a4,-1(a5)
80002b4c:	fe0718e3          	bnez	a4,80002b3c <strcpy+0x4>
80002b50:	00008067          	ret

80002b54 <atol>:
80002b54:	00054703          	lbu	a4,0(a0)
80002b58:	02000693          	li	a3,32
80002b5c:	00050793          	mv	a5,a0
80002b60:	00d71863          	bne	a4,a3,80002b70 <atol+0x1c>
80002b64:	0017c703          	lbu	a4,1(a5)
80002b68:	00178793          	addi	a5,a5,1
80002b6c:	fed70ce3          	beq	a4,a3,80002b64 <atol+0x10>
80002b70:	fd570693          	addi	a3,a4,-43
80002b74:	0fd6f693          	andi	a3,a3,253
80002b78:	04069463          	bnez	a3,80002bc0 <atol+0x6c>
80002b7c:	0017c683          	lbu	a3,1(a5)
80002b80:	fd370713          	addi	a4,a4,-45
80002b84:	00173613          	seqz	a2,a4
80002b88:	04068663          	beqz	a3,80002bd4 <atol+0x80>
80002b8c:	00178793          	addi	a5,a5,1
80002b90:	00000513          	li	a0,0
80002b94:	00178793          	addi	a5,a5,1
80002b98:	fd068593          	addi	a1,a3,-48
80002b9c:	00251713          	slli	a4,a0,0x2
80002ba0:	0007c683          	lbu	a3,0(a5)
80002ba4:	00a70733          	add	a4,a4,a0
80002ba8:	00171713          	slli	a4,a4,0x1
80002bac:	00e58533          	add	a0,a1,a4
80002bb0:	fe0692e3          	bnez	a3,80002b94 <atol+0x40>
80002bb4:	00060463          	beqz	a2,80002bbc <atol+0x68>
80002bb8:	40a00533          	neg	a0,a0
80002bbc:	00008067          	ret
80002bc0:	0007c683          	lbu	a3,0(a5)
80002bc4:	00000613          	li	a2,0
80002bc8:	fc0694e3          	bnez	a3,80002b90 <atol+0x3c>
80002bcc:	00000513          	li	a0,0
80002bd0:	00008067          	ret
80002bd4:	00000513          	li	a0,0
80002bd8:	fddff06f          	j	80002bb4 <atol+0x60>

80002bdc <__udivdi3>:
80002bdc:	fd010113          	addi	sp,sp,-48
80002be0:	01512a23          	sw	s5,20(sp)
80002be4:	02112623          	sw	ra,44(sp)
80002be8:	02812423          	sw	s0,40(sp)
80002bec:	02912223          	sw	s1,36(sp)
80002bf0:	03212023          	sw	s2,32(sp)
80002bf4:	01312e23          	sw	s3,28(sp)
80002bf8:	01412c23          	sw	s4,24(sp)
80002bfc:	01612823          	sw	s6,16(sp)
80002c00:	01712623          	sw	s7,12(sp)
80002c04:	01812423          	sw	s8,8(sp)
80002c08:	01912223          	sw	s9,4(sp)
80002c0c:	00050a93          	mv	s5,a0
80002c10:	38069463          	bnez	a3,80002f98 <__udivdi3+0x3bc>
80002c14:	800047b7          	lui	a5,0x80004
80002c18:	00060993          	mv	s3,a2
80002c1c:	00050493          	mv	s1,a0
80002c20:	ad478793          	addi	a5,a5,-1324 # 80003ad4 <__clz_tab>
80002c24:	16c5f463          	bgeu	a1,a2,80002d8c <__udivdi3+0x1b0>
80002c28:	00010737          	lui	a4,0x10
80002c2c:	00068a13          	mv	s4,a3
80002c30:	00058c13          	mv	s8,a1
80002c34:	12e67863          	bgeu	a2,a4,80002d64 <__udivdi3+0x188>
80002c38:	10063713          	sltiu	a4,a2,256
80002c3c:	00173713          	seqz	a4,a4
80002c40:	00371713          	slli	a4,a4,0x3
80002c44:	00e656b3          	srl	a3,a2,a4
80002c48:	00d787b3          	add	a5,a5,a3
80002c4c:	0007c783          	lbu	a5,0(a5)
80002c50:	00e787b3          	add	a5,a5,a4
80002c54:	02000713          	li	a4,32
80002c58:	00e78e63          	beq	a5,a4,80002c74 <__udivdi3+0x98>
80002c5c:	40f70733          	sub	a4,a4,a5
80002c60:	00e59c33          	sll	s8,a1,a4
80002c64:	00fad7b3          	srl	a5,s5,a5
80002c68:	00e619b3          	sll	s3,a2,a4
80002c6c:	0187ec33          	or	s8,a5,s8
80002c70:	00ea94b3          	sll	s1,s5,a4
80002c74:	0109db13          	srli	s6,s3,0x10
80002c78:	000b0593          	mv	a1,s6
80002c7c:	01099b93          	slli	s7,s3,0x10
80002c80:	000c0513          	mv	a0,s8
80002c84:	2dd000ef          	jal	80003760 <__hidden___udivsi3>
80002c88:	010bdb93          	srli	s7,s7,0x10
80002c8c:	00050593          	mv	a1,a0
80002c90:	00050913          	mv	s2,a0
80002c94:	000b8513          	mv	a0,s7
80002c98:	29d000ef          	jal	80003734 <__mulsi3>
80002c9c:	00050413          	mv	s0,a0
80002ca0:	000b0593          	mv	a1,s6
80002ca4:	000c0513          	mv	a0,s8
80002ca8:	301000ef          	jal	800037a8 <__umodsi3>
80002cac:	01051513          	slli	a0,a0,0x10
80002cb0:	0104d693          	srli	a3,s1,0x10
80002cb4:	00a6e6b3          	or	a3,a3,a0
80002cb8:	0086fa63          	bgeu	a3,s0,80002ccc <__udivdi3+0xf0>
80002cbc:	00d986b3          	add	a3,s3,a3
80002cc0:	0086f463          	bgeu	a3,s0,80002cc8 <__udivdi3+0xec>
80002cc4:	0b36fa63          	bgeu	a3,s3,80002d78 <__udivdi3+0x19c>
80002cc8:	fff90913          	addi	s2,s2,-1
80002ccc:	40868433          	sub	s0,a3,s0
80002cd0:	000b0593          	mv	a1,s6
80002cd4:	00040513          	mv	a0,s0
80002cd8:	289000ef          	jal	80003760 <__hidden___udivsi3>
80002cdc:	00050593          	mv	a1,a0
80002ce0:	00050a93          	mv	s5,a0
80002ce4:	000b8513          	mv	a0,s7
80002ce8:	24d000ef          	jal	80003734 <__mulsi3>
80002cec:	00050b93          	mv	s7,a0
80002cf0:	000b0593          	mv	a1,s6
80002cf4:	00040513          	mv	a0,s0
80002cf8:	2b1000ef          	jal	800037a8 <__umodsi3>
80002cfc:	01049493          	slli	s1,s1,0x10
80002d00:	01051513          	slli	a0,a0,0x10
80002d04:	0104d493          	srli	s1,s1,0x10
80002d08:	00a4e4b3          	or	s1,s1,a0
80002d0c:	0174fa63          	bgeu	s1,s7,80002d20 <__udivdi3+0x144>
80002d10:	009984b3          	add	s1,s3,s1
80002d14:	0174f463          	bgeu	s1,s7,80002d1c <__udivdi3+0x140>
80002d18:	0734f663          	bgeu	s1,s3,80002d84 <__udivdi3+0x1a8>
80002d1c:	fffa8a93          	addi	s5,s5,-1
80002d20:	01091793          	slli	a5,s2,0x10
80002d24:	0157e7b3          	or	a5,a5,s5
80002d28:	02c12083          	lw	ra,44(sp)
80002d2c:	02812403          	lw	s0,40(sp)
80002d30:	02412483          	lw	s1,36(sp)
80002d34:	02012903          	lw	s2,32(sp)
80002d38:	01c12983          	lw	s3,28(sp)
80002d3c:	01412a83          	lw	s5,20(sp)
80002d40:	01012b03          	lw	s6,16(sp)
80002d44:	00c12b83          	lw	s7,12(sp)
80002d48:	00812c03          	lw	s8,8(sp)
80002d4c:	00412c83          	lw	s9,4(sp)
80002d50:	000a0593          	mv	a1,s4
80002d54:	00078513          	mv	a0,a5
80002d58:	01812a03          	lw	s4,24(sp)
80002d5c:	03010113          	addi	sp,sp,48
80002d60:	00008067          	ret
80002d64:	010006b7          	lui	a3,0x1000
80002d68:	01800713          	li	a4,24
80002d6c:	ecd67ce3          	bgeu	a2,a3,80002c44 <__udivdi3+0x68>
80002d70:	01000713          	li	a4,16
80002d74:	ed1ff06f          	j	80002c44 <__udivdi3+0x68>
80002d78:	ffe90913          	addi	s2,s2,-2
80002d7c:	013686b3          	add	a3,a3,s3
80002d80:	f4dff06f          	j	80002ccc <__udivdi3+0xf0>
80002d84:	ffea8a93          	addi	s5,s5,-2
80002d88:	f99ff06f          	j	80002d20 <__udivdi3+0x144>
80002d8c:	00000713          	li	a4,0
80002d90:	00060c63          	beqz	a2,80002da8 <__udivdi3+0x1cc>
80002d94:	00010737          	lui	a4,0x10
80002d98:	0ee67463          	bgeu	a2,a4,80002e80 <__udivdi3+0x2a4>
80002d9c:	10063713          	sltiu	a4,a2,256
80002da0:	00173713          	seqz	a4,a4
80002da4:	00371713          	slli	a4,a4,0x3
80002da8:	00e656b3          	srl	a3,a2,a4
80002dac:	00d787b3          	add	a5,a5,a3
80002db0:	0007c783          	lbu	a5,0(a5)
80002db4:	00e787b3          	add	a5,a5,a4
80002db8:	02000713          	li	a4,32
80002dbc:	0ce79c63          	bne	a5,a4,80002e94 <__udivdi3+0x2b8>
80002dc0:	40c58433          	sub	s0,a1,a2
80002dc4:	00100a13          	li	s4,1
80002dc8:	0109da93          	srli	s5,s3,0x10
80002dcc:	000a8593          	mv	a1,s5
80002dd0:	01099b13          	slli	s6,s3,0x10
80002dd4:	00040513          	mv	a0,s0
80002dd8:	189000ef          	jal	80003760 <__hidden___udivsi3>
80002ddc:	010b5b13          	srli	s6,s6,0x10
80002de0:	00050593          	mv	a1,a0
80002de4:	00050913          	mv	s2,a0
80002de8:	000b0513          	mv	a0,s6
80002dec:	149000ef          	jal	80003734 <__mulsi3>
80002df0:	00050b93          	mv	s7,a0
80002df4:	000a8593          	mv	a1,s5
80002df8:	00040513          	mv	a0,s0
80002dfc:	1ad000ef          	jal	800037a8 <__umodsi3>
80002e00:	01051513          	slli	a0,a0,0x10
80002e04:	0104d693          	srli	a3,s1,0x10
80002e08:	00a6e6b3          	or	a3,a3,a0
80002e0c:	0176fa63          	bgeu	a3,s7,80002e20 <__udivdi3+0x244>
80002e10:	00d986b3          	add	a3,s3,a3
80002e14:	0176f463          	bgeu	a3,s7,80002e1c <__udivdi3+0x240>
80002e18:	1736f663          	bgeu	a3,s3,80002f84 <__udivdi3+0x3a8>
80002e1c:	fff90913          	addi	s2,s2,-1
80002e20:	41768433          	sub	s0,a3,s7
80002e24:	000a8593          	mv	a1,s5
80002e28:	00040513          	mv	a0,s0
80002e2c:	135000ef          	jal	80003760 <__hidden___udivsi3>
80002e30:	00050593          	mv	a1,a0
80002e34:	00050b93          	mv	s7,a0
80002e38:	000b0513          	mv	a0,s6
80002e3c:	0f9000ef          	jal	80003734 <__mulsi3>
80002e40:	00050b13          	mv	s6,a0
80002e44:	000a8593          	mv	a1,s5
80002e48:	00040513          	mv	a0,s0
80002e4c:	15d000ef          	jal	800037a8 <__umodsi3>
80002e50:	01049493          	slli	s1,s1,0x10
80002e54:	01051513          	slli	a0,a0,0x10
80002e58:	0104d493          	srli	s1,s1,0x10
80002e5c:	00a4e4b3          	or	s1,s1,a0
80002e60:	0164fa63          	bgeu	s1,s6,80002e74 <__udivdi3+0x298>
80002e64:	009984b3          	add	s1,s3,s1
80002e68:	0164f463          	bgeu	s1,s6,80002e70 <__udivdi3+0x294>
80002e6c:	1334f263          	bgeu	s1,s3,80002f90 <__udivdi3+0x3b4>
80002e70:	fffb8b93          	addi	s7,s7,-1
80002e74:	01091793          	slli	a5,s2,0x10
80002e78:	0177e7b3          	or	a5,a5,s7
80002e7c:	eadff06f          	j	80002d28 <__udivdi3+0x14c>
80002e80:	010006b7          	lui	a3,0x1000
80002e84:	01800713          	li	a4,24
80002e88:	f2d670e3          	bgeu	a2,a3,80002da8 <__udivdi3+0x1cc>
80002e8c:	01000713          	li	a4,16
80002e90:	f19ff06f          	j	80002da8 <__udivdi3+0x1cc>
80002e94:	40f70733          	sub	a4,a4,a5
80002e98:	00e619b3          	sll	s3,a2,a4
80002e9c:	00f5d433          	srl	s0,a1,a5
80002ea0:	0109db13          	srli	s6,s3,0x10
80002ea4:	00e595b3          	sll	a1,a1,a4
80002ea8:	00fad7b3          	srl	a5,s5,a5
80002eac:	00b7ea33          	or	s4,a5,a1
80002eb0:	01099b93          	slli	s7,s3,0x10
80002eb4:	000b0593          	mv	a1,s6
80002eb8:	00040513          	mv	a0,s0
80002ebc:	00ea94b3          	sll	s1,s5,a4
80002ec0:	010bdb93          	srli	s7,s7,0x10
80002ec4:	09d000ef          	jal	80003760 <__hidden___udivsi3>
80002ec8:	00050593          	mv	a1,a0
80002ecc:	00050913          	mv	s2,a0
80002ed0:	000b8513          	mv	a0,s7
80002ed4:	061000ef          	jal	80003734 <__mulsi3>
80002ed8:	00050a93          	mv	s5,a0
80002edc:	000b0593          	mv	a1,s6
80002ee0:	00040513          	mv	a0,s0
80002ee4:	0c5000ef          	jal	800037a8 <__umodsi3>
80002ee8:	01051513          	slli	a0,a0,0x10
80002eec:	010a5693          	srli	a3,s4,0x10
80002ef0:	00a6e6b3          	or	a3,a3,a0
80002ef4:	0156fa63          	bgeu	a3,s5,80002f08 <__udivdi3+0x32c>
80002ef8:	00d986b3          	add	a3,s3,a3
80002efc:	0156f463          	bgeu	a3,s5,80002f04 <__udivdi3+0x328>
80002f00:	0736f663          	bgeu	a3,s3,80002f6c <__udivdi3+0x390>
80002f04:	fff90913          	addi	s2,s2,-1
80002f08:	41568433          	sub	s0,a3,s5
80002f0c:	000b0593          	mv	a1,s6
80002f10:	00040513          	mv	a0,s0
80002f14:	04d000ef          	jal	80003760 <__hidden___udivsi3>
80002f18:	00050593          	mv	a1,a0
80002f1c:	00050a93          	mv	s5,a0
80002f20:	000b8513          	mv	a0,s7
80002f24:	011000ef          	jal	80003734 <__mulsi3>
80002f28:	00050b93          	mv	s7,a0
80002f2c:	000b0593          	mv	a1,s6
80002f30:	00040513          	mv	a0,s0
80002f34:	075000ef          	jal	800037a8 <__umodsi3>
80002f38:	010a1793          	slli	a5,s4,0x10
80002f3c:	01051513          	slli	a0,a0,0x10
80002f40:	0107d793          	srli	a5,a5,0x10
80002f44:	00a7e7b3          	or	a5,a5,a0
80002f48:	0177fa63          	bgeu	a5,s7,80002f5c <__udivdi3+0x380>
80002f4c:	00f987b3          	add	a5,s3,a5
80002f50:	0177f463          	bgeu	a5,s7,80002f58 <__udivdi3+0x37c>
80002f54:	0337f263          	bgeu	a5,s3,80002f78 <__udivdi3+0x39c>
80002f58:	fffa8a93          	addi	s5,s5,-1
80002f5c:	01091913          	slli	s2,s2,0x10
80002f60:	41778433          	sub	s0,a5,s7
80002f64:	01596a33          	or	s4,s2,s5
80002f68:	e61ff06f          	j	80002dc8 <__udivdi3+0x1ec>
80002f6c:	ffe90913          	addi	s2,s2,-2
80002f70:	013686b3          	add	a3,a3,s3
80002f74:	f95ff06f          	j	80002f08 <__udivdi3+0x32c>
80002f78:	ffea8a93          	addi	s5,s5,-2
80002f7c:	013787b3          	add	a5,a5,s3
80002f80:	fddff06f          	j	80002f5c <__udivdi3+0x380>
80002f84:	ffe90913          	addi	s2,s2,-2
80002f88:	013686b3          	add	a3,a3,s3
80002f8c:	e95ff06f          	j	80002e20 <__udivdi3+0x244>
80002f90:	ffeb8b93          	addi	s7,s7,-2
80002f94:	ee1ff06f          	j	80002e74 <__udivdi3+0x298>
80002f98:	1ed5e663          	bltu	a1,a3,80003184 <__udivdi3+0x5a8>
80002f9c:	000107b7          	lui	a5,0x10
80002fa0:	04f6f463          	bgeu	a3,a5,80002fe8 <__udivdi3+0x40c>
80002fa4:	1006b713          	sltiu	a4,a3,256
80002fa8:	00173713          	seqz	a4,a4
80002fac:	00371713          	slli	a4,a4,0x3
80002fb0:	800047b7          	lui	a5,0x80004
80002fb4:	00e6d533          	srl	a0,a3,a4
80002fb8:	ad478793          	addi	a5,a5,-1324 # 80003ad4 <__clz_tab>
80002fbc:	00a787b3          	add	a5,a5,a0
80002fc0:	0007c783          	lbu	a5,0(a5)
80002fc4:	02000b13          	li	s6,32
80002fc8:	00e787b3          	add	a5,a5,a4
80002fcc:	03679863          	bne	a5,s6,80002ffc <__udivdi3+0x420>
80002fd0:	00cab7b3          	sltu	a5,s5,a2
80002fd4:	0017b793          	seqz	a5,a5
80002fd8:	00b6b6b3          	sltu	a3,a3,a1
80002fdc:	00d7e7b3          	or	a5,a5,a3
80002fe0:	00000a13          	li	s4,0
80002fe4:	d45ff06f          	j	80002d28 <__udivdi3+0x14c>
80002fe8:	010007b7          	lui	a5,0x1000
80002fec:	01800713          	li	a4,24
80002ff0:	fcf6f0e3          	bgeu	a3,a5,80002fb0 <__udivdi3+0x3d4>
80002ff4:	01000713          	li	a4,16
80002ff8:	fb9ff06f          	j	80002fb0 <__udivdi3+0x3d4>
80002ffc:	40fb0b33          	sub	s6,s6,a5
80003000:	00f65bb3          	srl	s7,a2,a5
80003004:	016696b3          	sll	a3,a3,s6
80003008:	00dbebb3          	or	s7,s7,a3
8000300c:	00f5d4b3          	srl	s1,a1,a5
80003010:	010bdc93          	srli	s9,s7,0x10
80003014:	00fad7b3          	srl	a5,s5,a5
80003018:	016595b3          	sll	a1,a1,s6
8000301c:	00b7ea33          	or	s4,a5,a1
80003020:	010b9c13          	slli	s8,s7,0x10
80003024:	000c8593          	mv	a1,s9
80003028:	00048513          	mv	a0,s1
8000302c:	016619b3          	sll	s3,a2,s6
80003030:	010c5c13          	srli	s8,s8,0x10
80003034:	72c000ef          	jal	80003760 <__hidden___udivsi3>
80003038:	00050593          	mv	a1,a0
8000303c:	00050413          	mv	s0,a0
80003040:	000c0513          	mv	a0,s8
80003044:	6f0000ef          	jal	80003734 <__mulsi3>
80003048:	00050913          	mv	s2,a0
8000304c:	000c8593          	mv	a1,s9
80003050:	00048513          	mv	a0,s1
80003054:	754000ef          	jal	800037a8 <__umodsi3>
80003058:	01051513          	slli	a0,a0,0x10
8000305c:	010a5713          	srli	a4,s4,0x10
80003060:	00a76733          	or	a4,a4,a0
80003064:	01277a63          	bgeu	a4,s2,80003078 <__udivdi3+0x49c>
80003068:	00eb8733          	add	a4,s7,a4
8000306c:	01277463          	bgeu	a4,s2,80003074 <__udivdi3+0x498>
80003070:	0f777e63          	bgeu	a4,s7,8000316c <__udivdi3+0x590>
80003074:	fff40413          	addi	s0,s0,-1
80003078:	412704b3          	sub	s1,a4,s2
8000307c:	000c8593          	mv	a1,s9
80003080:	00048513          	mv	a0,s1
80003084:	6dc000ef          	jal	80003760 <__hidden___udivsi3>
80003088:	00050593          	mv	a1,a0
8000308c:	00050913          	mv	s2,a0
80003090:	000c0513          	mv	a0,s8
80003094:	6a0000ef          	jal	80003734 <__mulsi3>
80003098:	00050c13          	mv	s8,a0
8000309c:	000c8593          	mv	a1,s9
800030a0:	00048513          	mv	a0,s1
800030a4:	704000ef          	jal	800037a8 <__umodsi3>
800030a8:	010a1793          	slli	a5,s4,0x10
800030ac:	01051513          	slli	a0,a0,0x10
800030b0:	0107d793          	srli	a5,a5,0x10
800030b4:	00a7e7b3          	or	a5,a5,a0
800030b8:	0187fa63          	bgeu	a5,s8,800030cc <__udivdi3+0x4f0>
800030bc:	00fb87b3          	add	a5,s7,a5
800030c0:	0187f463          	bgeu	a5,s8,800030c8 <__udivdi3+0x4ec>
800030c4:	0b77fa63          	bgeu	a5,s7,80003178 <__udivdi3+0x59c>
800030c8:	fff90913          	addi	s2,s2,-1
800030cc:	01099313          	slli	t1,s3,0x10
800030d0:	01041413          	slli	s0,s0,0x10
800030d4:	01035313          	srli	t1,t1,0x10
800030d8:	01091513          	slli	a0,s2,0x10
800030dc:	418788b3          	sub	a7,a5,s8
800030e0:	01055513          	srli	a0,a0,0x10
800030e4:	012467b3          	or	a5,s0,s2
800030e8:	00030593          	mv	a1,t1
800030ec:	648000ef          	jal	80003734 <__mulsi3>
800030f0:	00050813          	mv	a6,a0
800030f4:	01091513          	slli	a0,s2,0x10
800030f8:	01055513          	srli	a0,a0,0x10
800030fc:	0109d593          	srli	a1,s3,0x10
80003100:	634000ef          	jal	80003734 <__mulsi3>
80003104:	00050713          	mv	a4,a0
80003108:	00030593          	mv	a1,t1
8000310c:	0107d513          	srli	a0,a5,0x10
80003110:	624000ef          	jal	80003734 <__mulsi3>
80003114:	00050313          	mv	t1,a0
80003118:	0109d593          	srli	a1,s3,0x10
8000311c:	0107d513          	srli	a0,a5,0x10
80003120:	614000ef          	jal	80003734 <__mulsi3>
80003124:	01085693          	srli	a3,a6,0x10
80003128:	00670733          	add	a4,a4,t1
8000312c:	00e686b3          	add	a3,a3,a4
80003130:	0066f663          	bgeu	a3,t1,8000313c <__udivdi3+0x560>
80003134:	00010737          	lui	a4,0x10
80003138:	00e50533          	add	a0,a0,a4
8000313c:	0106d613          	srli	a2,a3,0x10
80003140:	00a60633          	add	a2,a2,a0
80003144:	02c8e063          	bltu	a7,a2,80003164 <__udivdi3+0x588>
80003148:	01081813          	slli	a6,a6,0x10
8000314c:	01069693          	slli	a3,a3,0x10
80003150:	01085813          	srli	a6,a6,0x10
80003154:	016a9733          	sll	a4,s5,s6
80003158:	010686b3          	add	a3,a3,a6
8000315c:	e8d772e3          	bgeu	a4,a3,80002fe0 <__udivdi3+0x404>
80003160:	e8c890e3          	bne	a7,a2,80002fe0 <__udivdi3+0x404>
80003164:	fff78793          	addi	a5,a5,-1 # ffffff <buflen.1+0xffffbf>
80003168:	e79ff06f          	j	80002fe0 <__udivdi3+0x404>
8000316c:	ffe40413          	addi	s0,s0,-2
80003170:	01770733          	add	a4,a4,s7
80003174:	f05ff06f          	j	80003078 <__udivdi3+0x49c>
80003178:	ffe90913          	addi	s2,s2,-2
8000317c:	017787b3          	add	a5,a5,s7
80003180:	f4dff06f          	j	800030cc <__udivdi3+0x4f0>
80003184:	00000a13          	li	s4,0
80003188:	00000793          	li	a5,0
8000318c:	b9dff06f          	j	80002d28 <__udivdi3+0x14c>

80003190 <__umoddi3>:
80003190:	fc010113          	addi	sp,sp,-64
80003194:	02812c23          	sw	s0,56(sp)
80003198:	02912a23          	sw	s1,52(sp)
8000319c:	02112e23          	sw	ra,60(sp)
800031a0:	03212823          	sw	s2,48(sp)
800031a4:	03312623          	sw	s3,44(sp)
800031a8:	03412423          	sw	s4,40(sp)
800031ac:	03512223          	sw	s5,36(sp)
800031b0:	03612023          	sw	s6,32(sp)
800031b4:	01712e23          	sw	s7,28(sp)
800031b8:	01812c23          	sw	s8,24(sp)
800031bc:	01912a23          	sw	s9,20(sp)
800031c0:	01a12823          	sw	s10,16(sp)
800031c4:	01b12623          	sw	s11,12(sp)
800031c8:	00050413          	mv	s0,a0
800031cc:	00058493          	mv	s1,a1
800031d0:	32069a63          	bnez	a3,80003504 <__umoddi3+0x374>
800031d4:	800047b7          	lui	a5,0x80004
800031d8:	00060993          	mv	s3,a2
800031dc:	ad478793          	addi	a5,a5,-1324 # 80003ad4 <__clz_tab>
800031e0:	16c5f063          	bgeu	a1,a2,80003340 <__umoddi3+0x1b0>
800031e4:	00010737          	lui	a4,0x10
800031e8:	14e67263          	bgeu	a2,a4,8000332c <__umoddi3+0x19c>
800031ec:	10063713          	sltiu	a4,a2,256
800031f0:	00173713          	seqz	a4,a4
800031f4:	00371713          	slli	a4,a4,0x3
800031f8:	00e656b3          	srl	a3,a2,a4
800031fc:	00d787b3          	add	a5,a5,a3
80003200:	0007c783          	lbu	a5,0(a5)
80003204:	00e787b3          	add	a5,a5,a4
80003208:	02000713          	li	a4,32
8000320c:	40f70933          	sub	s2,a4,a5
80003210:	00e78c63          	beq	a5,a4,80003228 <__umoddi3+0x98>
80003214:	012595b3          	sll	a1,a1,s2
80003218:	00f557b3          	srl	a5,a0,a5
8000321c:	012619b3          	sll	s3,a2,s2
80003220:	00b7e4b3          	or	s1,a5,a1
80003224:	01251433          	sll	s0,a0,s2
80003228:	0109da13          	srli	s4,s3,0x10
8000322c:	000a0593          	mv	a1,s4
80003230:	01099a93          	slli	s5,s3,0x10
80003234:	00048513          	mv	a0,s1
80003238:	528000ef          	jal	80003760 <__hidden___udivsi3>
8000323c:	010ada93          	srli	s5,s5,0x10
80003240:	000a8593          	mv	a1,s5
80003244:	4f0000ef          	jal	80003734 <__mulsi3>
80003248:	00050b13          	mv	s6,a0
8000324c:	000a0593          	mv	a1,s4
80003250:	00048513          	mv	a0,s1
80003254:	554000ef          	jal	800037a8 <__umodsi3>
80003258:	01051513          	slli	a0,a0,0x10
8000325c:	01045793          	srli	a5,s0,0x10
80003260:	00a7e7b3          	or	a5,a5,a0
80003264:	0367f263          	bgeu	a5,s6,80003288 <__umoddi3+0xf8>
80003268:	00f987b3          	add	a5,s3,a5
8000326c:	0137b6b3          	sltu	a3,a5,s3
80003270:	0167b733          	sltu	a4,a5,s6
80003274:	0016b693          	seqz	a3,a3
80003278:	00d77733          	and	a4,a4,a3
8000327c:	40e00733          	neg	a4,a4
80003280:	01377733          	and	a4,a4,s3
80003284:	00f707b3          	add	a5,a4,a5
80003288:	41678b33          	sub	s6,a5,s6
8000328c:	000a0593          	mv	a1,s4
80003290:	000b0513          	mv	a0,s6
80003294:	4cc000ef          	jal	80003760 <__hidden___udivsi3>
80003298:	000a8593          	mv	a1,s5
8000329c:	498000ef          	jal	80003734 <__mulsi3>
800032a0:	00050a93          	mv	s5,a0
800032a4:	000a0593          	mv	a1,s4
800032a8:	000b0513          	mv	a0,s6
800032ac:	4fc000ef          	jal	800037a8 <__umodsi3>
800032b0:	01051793          	slli	a5,a0,0x10
800032b4:	01041513          	slli	a0,s0,0x10
800032b8:	01055513          	srli	a0,a0,0x10
800032bc:	00f56533          	or	a0,a0,a5
800032c0:	03557263          	bgeu	a0,s5,800032e4 <__umoddi3+0x154>
800032c4:	00a98533          	add	a0,s3,a0
800032c8:	01353733          	sltu	a4,a0,s3
800032cc:	015537b3          	sltu	a5,a0,s5
800032d0:	00173713          	seqz	a4,a4
800032d4:	00e7f7b3          	and	a5,a5,a4
800032d8:	40f007b3          	neg	a5,a5
800032dc:	0137f7b3          	and	a5,a5,s3
800032e0:	00a78533          	add	a0,a5,a0
800032e4:	41550533          	sub	a0,a0,s5
800032e8:	01255533          	srl	a0,a0,s2
800032ec:	00000593          	li	a1,0
800032f0:	03c12083          	lw	ra,60(sp)
800032f4:	03812403          	lw	s0,56(sp)
800032f8:	03412483          	lw	s1,52(sp)
800032fc:	03012903          	lw	s2,48(sp)
80003300:	02c12983          	lw	s3,44(sp)
80003304:	02812a03          	lw	s4,40(sp)
80003308:	02412a83          	lw	s5,36(sp)
8000330c:	02012b03          	lw	s6,32(sp)
80003310:	01c12b83          	lw	s7,28(sp)
80003314:	01812c03          	lw	s8,24(sp)
80003318:	01412c83          	lw	s9,20(sp)
8000331c:	01012d03          	lw	s10,16(sp)
80003320:	00c12d83          	lw	s11,12(sp)
80003324:	04010113          	addi	sp,sp,64
80003328:	00008067          	ret
8000332c:	010006b7          	lui	a3,0x1000
80003330:	01800713          	li	a4,24
80003334:	ecd672e3          	bgeu	a2,a3,800031f8 <__umoddi3+0x68>
80003338:	01000713          	li	a4,16
8000333c:	ebdff06f          	j	800031f8 <__umoddi3+0x68>
80003340:	00000713          	li	a4,0
80003344:	00060c63          	beqz	a2,8000335c <__umoddi3+0x1cc>
80003348:	00010737          	lui	a4,0x10
8000334c:	1ae67263          	bgeu	a2,a4,800034f0 <__umoddi3+0x360>
80003350:	10063713          	sltiu	a4,a2,256
80003354:	00173713          	seqz	a4,a4
80003358:	00371713          	slli	a4,a4,0x3
8000335c:	00e656b3          	srl	a3,a2,a4
80003360:	00d787b3          	add	a5,a5,a3
80003364:	0007c683          	lbu	a3,0(a5)
80003368:	02000793          	li	a5,32
8000336c:	40c584b3          	sub	s1,a1,a2
80003370:	00e68733          	add	a4,a3,a4
80003374:	40e78933          	sub	s2,a5,a4
80003378:	0cf70e63          	beq	a4,a5,80003454 <__umoddi3+0x2c4>
8000337c:	012619b3          	sll	s3,a2,s2
80003380:	00e5dbb3          	srl	s7,a1,a4
80003384:	00e557b3          	srl	a5,a0,a4
80003388:	012595b3          	sll	a1,a1,s2
8000338c:	0109da93          	srli	s5,s3,0x10
80003390:	00b7ea33          	or	s4,a5,a1
80003394:	01251433          	sll	s0,a0,s2
80003398:	000a8593          	mv	a1,s5
8000339c:	01099b13          	slli	s6,s3,0x10
800033a0:	000b8513          	mv	a0,s7
800033a4:	3bc000ef          	jal	80003760 <__hidden___udivsi3>
800033a8:	010b5b13          	srli	s6,s6,0x10
800033ac:	000b0593          	mv	a1,s6
800033b0:	384000ef          	jal	80003734 <__mulsi3>
800033b4:	00050493          	mv	s1,a0
800033b8:	000a8593          	mv	a1,s5
800033bc:	000b8513          	mv	a0,s7
800033c0:	3e8000ef          	jal	800037a8 <__umodsi3>
800033c4:	01051513          	slli	a0,a0,0x10
800033c8:	010a5713          	srli	a4,s4,0x10
800033cc:	00a76733          	or	a4,a4,a0
800033d0:	02977263          	bgeu	a4,s1,800033f4 <__umoddi3+0x264>
800033d4:	00e98733          	add	a4,s3,a4
800033d8:	013736b3          	sltu	a3,a4,s3
800033dc:	009737b3          	sltu	a5,a4,s1
800033e0:	0016b693          	seqz	a3,a3
800033e4:	00d7f7b3          	and	a5,a5,a3
800033e8:	40f007b3          	neg	a5,a5
800033ec:	0137f7b3          	and	a5,a5,s3
800033f0:	00e78733          	add	a4,a5,a4
800033f4:	409704b3          	sub	s1,a4,s1
800033f8:	000a8593          	mv	a1,s5
800033fc:	00048513          	mv	a0,s1
80003400:	360000ef          	jal	80003760 <__hidden___udivsi3>
80003404:	000b0593          	mv	a1,s6
80003408:	32c000ef          	jal	80003734 <__mulsi3>
8000340c:	00050b13          	mv	s6,a0
80003410:	000a8593          	mv	a1,s5
80003414:	00048513          	mv	a0,s1
80003418:	390000ef          	jal	800037a8 <__umodsi3>
8000341c:	010a1793          	slli	a5,s4,0x10
80003420:	01051513          	slli	a0,a0,0x10
80003424:	0107d793          	srli	a5,a5,0x10
80003428:	00a7e7b3          	or	a5,a5,a0
8000342c:	0367f263          	bgeu	a5,s6,80003450 <__umoddi3+0x2c0>
80003430:	00f987b3          	add	a5,s3,a5
80003434:	0137b6b3          	sltu	a3,a5,s3
80003438:	0167b733          	sltu	a4,a5,s6
8000343c:	0016b693          	seqz	a3,a3
80003440:	00d77733          	and	a4,a4,a3
80003444:	40e00733          	neg	a4,a4
80003448:	01377733          	and	a4,a4,s3
8000344c:	00f707b3          	add	a5,a4,a5
80003450:	416784b3          	sub	s1,a5,s6
80003454:	0109da13          	srli	s4,s3,0x10
80003458:	000a0593          	mv	a1,s4
8000345c:	01099a93          	slli	s5,s3,0x10
80003460:	00048513          	mv	a0,s1
80003464:	2fc000ef          	jal	80003760 <__hidden___udivsi3>
80003468:	010ada93          	srli	s5,s5,0x10
8000346c:	000a8593          	mv	a1,s5
80003470:	2c4000ef          	jal	80003734 <__mulsi3>
80003474:	00050b13          	mv	s6,a0
80003478:	000a0593          	mv	a1,s4
8000347c:	00048513          	mv	a0,s1
80003480:	328000ef          	jal	800037a8 <__umodsi3>
80003484:	01051513          	slli	a0,a0,0x10
80003488:	01045793          	srli	a5,s0,0x10
8000348c:	00a7e7b3          	or	a5,a5,a0
80003490:	0367f263          	bgeu	a5,s6,800034b4 <__umoddi3+0x324>
80003494:	00f987b3          	add	a5,s3,a5
80003498:	0137b6b3          	sltu	a3,a5,s3
8000349c:	0167b733          	sltu	a4,a5,s6
800034a0:	0016b693          	seqz	a3,a3
800034a4:	00d77733          	and	a4,a4,a3
800034a8:	40e00733          	neg	a4,a4
800034ac:	01377733          	and	a4,a4,s3
800034b0:	00f707b3          	add	a5,a4,a5
800034b4:	41678b33          	sub	s6,a5,s6
800034b8:	000a0593          	mv	a1,s4
800034bc:	000b0513          	mv	a0,s6
800034c0:	2a0000ef          	jal	80003760 <__hidden___udivsi3>
800034c4:	000a8593          	mv	a1,s5
800034c8:	26c000ef          	jal	80003734 <__mulsi3>
800034cc:	00050a93          	mv	s5,a0
800034d0:	000a0593          	mv	a1,s4
800034d4:	000b0513          	mv	a0,s6
800034d8:	2d0000ef          	jal	800037a8 <__umodsi3>
800034dc:	01041413          	slli	s0,s0,0x10
800034e0:	01051513          	slli	a0,a0,0x10
800034e4:	01045413          	srli	s0,s0,0x10
800034e8:	00a46533          	or	a0,s0,a0
800034ec:	dd5ff06f          	j	800032c0 <__umoddi3+0x130>
800034f0:	010006b7          	lui	a3,0x1000
800034f4:	01800713          	li	a4,24
800034f8:	e6d672e3          	bgeu	a2,a3,8000335c <__umoddi3+0x1cc>
800034fc:	01000713          	li	a4,16
80003500:	e5dff06f          	j	8000335c <__umoddi3+0x1cc>
80003504:	ded5e6e3          	bltu	a1,a3,800032f0 <__umoddi3+0x160>
80003508:	000107b7          	lui	a5,0x10
8000350c:	04f6fc63          	bgeu	a3,a5,80003564 <__umoddi3+0x3d4>
80003510:	1006b713          	sltiu	a4,a3,256
80003514:	00173713          	seqz	a4,a4
80003518:	00371713          	slli	a4,a4,0x3
8000351c:	800047b7          	lui	a5,0x80004
80003520:	00e6d833          	srl	a6,a3,a4
80003524:	ad478793          	addi	a5,a5,-1324 # 80003ad4 <__clz_tab>
80003528:	010787b3          	add	a5,a5,a6
8000352c:	0007ca03          	lbu	s4,0(a5)
80003530:	02000a93          	li	s5,32
80003534:	00ea0a33          	add	s4,s4,a4
80003538:	055a1063          	bne	s4,s5,80003578 <__umoddi3+0x3e8>
8000353c:	00c57463          	bgeu	a0,a2,80003544 <__umoddi3+0x3b4>
80003540:	00b6fc63          	bgeu	a3,a1,80003558 <__umoddi3+0x3c8>
80003544:	40c504b3          	sub	s1,a0,a2
80003548:	00048413          	mv	s0,s1
8000354c:	40d586b3          	sub	a3,a1,a3
80003550:	009534b3          	sltu	s1,a0,s1
80003554:	409684b3          	sub	s1,a3,s1
80003558:	00040513          	mv	a0,s0
8000355c:	00048593          	mv	a1,s1
80003560:	d91ff06f          	j	800032f0 <__umoddi3+0x160>
80003564:	010007b7          	lui	a5,0x1000
80003568:	01800713          	li	a4,24
8000356c:	faf6f8e3          	bgeu	a3,a5,8000351c <__umoddi3+0x38c>
80003570:	01000713          	li	a4,16
80003574:	fa9ff06f          	j	8000351c <__umoddi3+0x38c>
80003578:	414a8ab3          	sub	s5,s5,s4
8000357c:	015696b3          	sll	a3,a3,s5
80003580:	01465bb3          	srl	s7,a2,s4
80003584:	00dbebb3          	or	s7,s7,a3
80003588:	0145db33          	srl	s6,a1,s4
8000358c:	010bdc93          	srli	s9,s7,0x10
80003590:	015597b3          	sll	a5,a1,s5
80003594:	01455933          	srl	s2,a0,s4
80003598:	000c8593          	mv	a1,s9
8000359c:	015514b3          	sll	s1,a0,s5
800035a0:	010b9d13          	slli	s10,s7,0x10
800035a4:	000b0513          	mv	a0,s6
800035a8:	00f96933          	or	s2,s2,a5
800035ac:	015619b3          	sll	s3,a2,s5
800035b0:	010d5d13          	srli	s10,s10,0x10
800035b4:	1ac000ef          	jal	80003760 <__hidden___udivsi3>
800035b8:	00050593          	mv	a1,a0
800035bc:	00050413          	mv	s0,a0
800035c0:	000d0513          	mv	a0,s10
800035c4:	170000ef          	jal	80003734 <__mulsi3>
800035c8:	00050c13          	mv	s8,a0
800035cc:	000c8593          	mv	a1,s9
800035d0:	000b0513          	mv	a0,s6
800035d4:	1d4000ef          	jal	800037a8 <__umodsi3>
800035d8:	01051513          	slli	a0,a0,0x10
800035dc:	01095793          	srli	a5,s2,0x10
800035e0:	00a7e7b3          	or	a5,a5,a0
800035e4:	0187fa63          	bgeu	a5,s8,800035f8 <__umoddi3+0x468>
800035e8:	00fb87b3          	add	a5,s7,a5
800035ec:	0187f463          	bgeu	a5,s8,800035f4 <__umoddi3+0x464>
800035f0:	1377f663          	bgeu	a5,s7,8000371c <__umoddi3+0x58c>
800035f4:	fff40413          	addi	s0,s0,-1
800035f8:	41878db3          	sub	s11,a5,s8
800035fc:	000c8593          	mv	a1,s9
80003600:	000d8513          	mv	a0,s11
80003604:	15c000ef          	jal	80003760 <__hidden___udivsi3>
80003608:	00050593          	mv	a1,a0
8000360c:	00050b13          	mv	s6,a0
80003610:	000d0513          	mv	a0,s10
80003614:	120000ef          	jal	80003734 <__mulsi3>
80003618:	000c8593          	mv	a1,s9
8000361c:	00050c13          	mv	s8,a0
80003620:	000d8513          	mv	a0,s11
80003624:	184000ef          	jal	800037a8 <__umodsi3>
80003628:	01091593          	slli	a1,s2,0x10
8000362c:	01051513          	slli	a0,a0,0x10
80003630:	0105d593          	srli	a1,a1,0x10
80003634:	00a5e5b3          	or	a1,a1,a0
80003638:	0185fa63          	bgeu	a1,s8,8000364c <__umoddi3+0x4bc>
8000363c:	00bb85b3          	add	a1,s7,a1
80003640:	0185f463          	bgeu	a1,s8,80003648 <__umoddi3+0x4b8>
80003644:	0f75f263          	bgeu	a1,s7,80003728 <__umoddi3+0x598>
80003648:	fffb0b13          	addi	s6,s6,-1
8000364c:	01041413          	slli	s0,s0,0x10
80003650:	41858733          	sub	a4,a1,s8
80003654:	01646433          	or	s0,s0,s6
80003658:	010b1513          	slli	a0,s6,0x10
8000365c:	01099593          	slli	a1,s3,0x10
80003660:	01045413          	srli	s0,s0,0x10
80003664:	01055513          	srli	a0,a0,0x10
80003668:	0105d593          	srli	a1,a1,0x10
8000366c:	0c8000ef          	jal	80003734 <__mulsi3>
80003670:	00050813          	mv	a6,a0
80003674:	010b1513          	slli	a0,s6,0x10
80003678:	01055513          	srli	a0,a0,0x10
8000367c:	0109d593          	srli	a1,s3,0x10
80003680:	0b4000ef          	jal	80003734 <__mulsi3>
80003684:	01099593          	slli	a1,s3,0x10
80003688:	00050793          	mv	a5,a0
8000368c:	0105d593          	srli	a1,a1,0x10
80003690:	00040513          	mv	a0,s0
80003694:	0a0000ef          	jal	80003734 <__mulsi3>
80003698:	00050313          	mv	t1,a0
8000369c:	0109d593          	srli	a1,s3,0x10
800036a0:	00040513          	mv	a0,s0
800036a4:	090000ef          	jal	80003734 <__mulsi3>
800036a8:	006787b3          	add	a5,a5,t1
800036ac:	01085693          	srli	a3,a6,0x10
800036b0:	00d787b3          	add	a5,a5,a3
800036b4:	0067f663          	bgeu	a5,t1,800036c0 <__umoddi3+0x530>
800036b8:	000106b7          	lui	a3,0x10
800036bc:	00d50533          	add	a0,a0,a3
800036c0:	0107d693          	srli	a3,a5,0x10
800036c4:	01081813          	slli	a6,a6,0x10
800036c8:	01079793          	slli	a5,a5,0x10
800036cc:	01085813          	srli	a6,a6,0x10
800036d0:	00a68533          	add	a0,a3,a0
800036d4:	010787b3          	add	a5,a5,a6
800036d8:	00a76663          	bltu	a4,a0,800036e4 <__umoddi3+0x554>
800036dc:	00f4fe63          	bgeu	s1,a5,800036f8 <__umoddi3+0x568>
800036e0:	00a71c63          	bne	a4,a0,800036f8 <__umoddi3+0x568>
800036e4:	413789b3          	sub	s3,a5,s3
800036e8:	0137b6b3          	sltu	a3,a5,s3
800036ec:	017686b3          	add	a3,a3,s7
800036f0:	00098793          	mv	a5,s3
800036f4:	40d50533          	sub	a0,a0,a3
800036f8:	40f487b3          	sub	a5,s1,a5
800036fc:	40a705b3          	sub	a1,a4,a0
80003700:	00f4b4b3          	sltu	s1,s1,a5
80003704:	409585b3          	sub	a1,a1,s1
80003708:	01459a33          	sll	s4,a1,s4
8000370c:	0157d7b3          	srl	a5,a5,s5
80003710:	00fa6533          	or	a0,s4,a5
80003714:	0155d5b3          	srl	a1,a1,s5
80003718:	bd9ff06f          	j	800032f0 <__umoddi3+0x160>
8000371c:	ffe40413          	addi	s0,s0,-2
80003720:	017787b3          	add	a5,a5,s7
80003724:	ed5ff06f          	j	800035f8 <__umoddi3+0x468>
80003728:	ffeb0b13          	addi	s6,s6,-2
8000372c:	017585b3          	add	a1,a1,s7
80003730:	f1dff06f          	j	8000364c <__umoddi3+0x4bc>

80003734 <__mulsi3>:
80003734:	00050613          	mv	a2,a0
80003738:	00000513          	li	a0,0
8000373c:	0015f693          	andi	a3,a1,1
80003740:	00068463          	beqz	a3,80003748 <__mulsi3+0x14>
80003744:	00c50533          	add	a0,a0,a2
80003748:	0015d593          	srli	a1,a1,0x1
8000374c:	00161613          	slli	a2,a2,0x1
80003750:	fe0596e3          	bnez	a1,8000373c <__mulsi3+0x8>
80003754:	00008067          	ret

80003758 <__divsi3>:
80003758:	06054063          	bltz	a0,800037b8 <__umodsi3+0x10>
8000375c:	0605c663          	bltz	a1,800037c8 <__umodsi3+0x20>

80003760 <__hidden___udivsi3>:
80003760:	00058613          	mv	a2,a1
80003764:	00050593          	mv	a1,a0
80003768:	fff00513          	li	a0,-1
8000376c:	02060c63          	beqz	a2,800037a4 <__hidden___udivsi3+0x44>
80003770:	00100693          	li	a3,1
80003774:	00b67a63          	bgeu	a2,a1,80003788 <__hidden___udivsi3+0x28>
80003778:	00c05863          	blez	a2,80003788 <__hidden___udivsi3+0x28>
8000377c:	00161613          	slli	a2,a2,0x1
80003780:	00169693          	slli	a3,a3,0x1
80003784:	feb66ae3          	bltu	a2,a1,80003778 <__hidden___udivsi3+0x18>
80003788:	00000513          	li	a0,0
8000378c:	00c5e663          	bltu	a1,a2,80003798 <__hidden___udivsi3+0x38>
80003790:	40c585b3          	sub	a1,a1,a2
80003794:	00d56533          	or	a0,a0,a3
80003798:	0016d693          	srli	a3,a3,0x1
8000379c:	00165613          	srli	a2,a2,0x1
800037a0:	fe0696e3          	bnez	a3,8000378c <__hidden___udivsi3+0x2c>
800037a4:	00008067          	ret

800037a8 <__umodsi3>:
800037a8:	00008293          	mv	t0,ra
800037ac:	fb5ff0ef          	jal	80003760 <__hidden___udivsi3>
800037b0:	00058513          	mv	a0,a1
800037b4:	00028067          	jr	t0
800037b8:	40a00533          	neg	a0,a0
800037bc:	00b04863          	bgtz	a1,800037cc <__umodsi3+0x24>
800037c0:	40b005b3          	neg	a1,a1
800037c4:	f9dff06f          	j	80003760 <__hidden___udivsi3>
800037c8:	40b005b3          	neg	a1,a1
800037cc:	00008293          	mv	t0,ra
800037d0:	f91ff0ef          	jal	80003760 <__hidden___udivsi3>
800037d4:	40a00533          	neg	a0,a0
800037d8:	00028067          	jr	t0

800037dc <__modsi3>:
800037dc:	00008293          	mv	t0,ra
800037e0:	0005ca63          	bltz	a1,800037f4 <__modsi3+0x18>
800037e4:	00054c63          	bltz	a0,800037fc <__modsi3+0x20>
800037e8:	f79ff0ef          	jal	80003760 <__hidden___udivsi3>
800037ec:	00058513          	mv	a0,a1
800037f0:	00028067          	jr	t0
800037f4:	40b005b3          	neg	a1,a1
800037f8:	fe0558e3          	bgez	a0,800037e8 <__modsi3+0xc>
800037fc:	40a00533          	neg	a0,a0
80003800:	f61ff0ef          	jal	80003760 <__hidden___udivsi3>
80003804:	40b00533          	neg	a0,a1
80003808:	00028067          	jr	t0

Disassembly of section .text.startup:

8000380c <main>:
8000380c:	e5010113          	addi	sp,sp,-432
80003810:	1a812423          	sw	s0,424(sp)
80003814:	1b212023          	sw	s2,416(sp)
80003818:	00000417          	auipc	s0,0x0
8000381c:	47040413          	addi	s0,s0,1136 # 80003c88 <input_data1>
80003820:	00000917          	auipc	s2,0x0
80003824:	5f890913          	addi	s2,s2,1528 # 80003e18 <input_data2>
80003828:	1a912223          	sw	s1,420(sp)
8000382c:	19312e23          	sw	s3,412(sp)
80003830:	19412c23          	sw	s4,408(sp)
80003834:	19512a23          	sw	s5,404(sp)
80003838:	19612823          	sw	s6,400(sp)
8000383c:	1a112623          	sw	ra,428(sp)
80003840:	00010b13          	mv	s6,sp
80003844:	00040493          	mv	s1,s0
80003848:	00090a93          	mv	s5,s2
8000384c:	00090a13          	mv	s4,s2
80003850:	00010993          	mv	s3,sp
80003854:	000a2583          	lw	a1,0(s4)
80003858:	0004a503          	lw	a0,0(s1)
8000385c:	00448493          	addi	s1,s1,4
80003860:	004a0a13          	addi	s4,s4,4
80003864:	f9cfe0ef          	jal	80002000 <multiply>
80003868:	00a9a023          	sw	a0,0(s3)
8000386c:	00498993          	addi	s3,s3,4
80003870:	ff5492e3          	bne	s1,s5,80003854 <main+0x48>
80003874:	00100513          	li	a0,1
80003878:	d71fe0ef          	jal	800025e8 <setStats>
8000387c:	000b0493          	mv	s1,s6
80003880:	00092583          	lw	a1,0(s2)
80003884:	00042503          	lw	a0,0(s0)
80003888:	00440413          	addi	s0,s0,4
8000388c:	00490913          	addi	s2,s2,4
80003890:	f70fe0ef          	jal	80002000 <multiply>
80003894:	00a4a023          	sw	a0,0(s1)
80003898:	00448493          	addi	s1,s1,4
8000389c:	ff5412e3          	bne	s0,s5,80003880 <main+0x74>
800038a0:	00000513          	li	a0,0
800038a4:	d45fe0ef          	jal	800025e8 <setStats>
800038a8:	00000797          	auipc	a5,0x0
800038ac:	70078793          	addi	a5,a5,1792 # 80003fa8 <verify_data>
800038b0:	00000513          	li	a0,0
800038b4:	06400593          	li	a1,100
800038b8:	000b2683          	lw	a3,0(s6)
800038bc:	0007a703          	lw	a4,0(a5)
800038c0:	004b2603          	lw	a2,4(s6)
800038c4:	008b0b13          	addi	s6,s6,8
800038c8:	04e69263          	bne	a3,a4,8000390c <main+0x100>
800038cc:	0047a703          	lw	a4,4(a5)
800038d0:	00250513          	addi	a0,a0,2
800038d4:	00878793          	addi	a5,a5,8
800038d8:	00e61663          	bne	a2,a4,800038e4 <main+0xd8>
800038dc:	fcb51ee3          	bne	a0,a1,800038b8 <main+0xac>
800038e0:	00000513          	li	a0,0
800038e4:	1ac12083          	lw	ra,428(sp)
800038e8:	1a812403          	lw	s0,424(sp)
800038ec:	1a412483          	lw	s1,420(sp)
800038f0:	1a012903          	lw	s2,416(sp)
800038f4:	19c12983          	lw	s3,412(sp)
800038f8:	19812a03          	lw	s4,408(sp)
800038fc:	19412a83          	lw	s5,404(sp)
80003900:	19012b03          	lw	s6,400(sp)
80003904:	1b010113          	addi	sp,sp,432
80003908:	00008067          	ret
8000390c:	00150513          	addi	a0,a0,1
80003910:	fd5ff06f          	j	800038e4 <main+0xd8>
80003914:	ff010113          	addi	sp,sp,-16
80003918:	00000517          	auipc	a0,0x0
8000391c:	04050513          	addi	a0,a0,64 # 80003958 <main+0x14c>
80003920:	00112623          	sw	ra,12(sp)
80003924:	d8dfe0ef          	jal	800026b0 <printstr>
80003928:	00c12083          	lw	ra,12(sp)
8000392c:	fff00513          	li	a0,-1
80003930:	01010113          	addi	sp,sp,16
80003934:	00008067          	ret

Disassembly of section .data:

80003c88 <input_data1>:
80003c88:	0029                	.insn	2, 0x0029
80003c8a:	0000                	.insn	2, 0x0000
80003c8c:	01c6                	.insn	2, 0x01c6
80003c8e:	0000                	.insn	2, 0x0000
80003c90:	0341                	.insn	2, 0x0341
80003c92:	0000                	.insn	2, 0x0000
80003c94:	0000014f          	.insn	4, 0x014f
80003c98:	0234                	.insn	2, 0x0234
80003c9a:	0000                	.insn	2, 0x0000
80003c9c:	0001                	.insn	2, 0x0001
80003c9e:	0000                	.insn	2, 0x0000
80003ca0:	000000bb          	.insn	4, 0x00bb
80003ca4:	03dd                	.insn	2, 0x03dd
80003ca6:	0000                	.insn	2, 0x0000
80003ca8:	02ed                	.insn	2, 0x02ed
80003caa:	0000                	.insn	2, 0x0000
80003cac:	016d                	.insn	2, 0x016d
80003cae:	0000                	.insn	2, 0x0000
80003cb0:	015e                	.insn	2, 0x015e
80003cb2:	0000                	.insn	2, 0x0000
80003cb4:	023c                	.insn	2, 0x023c
80003cb6:	0000                	.insn	2, 0x0000
80003cb8:	0084                	.insn	2, 0x0084
80003cba:	0000                	.insn	2, 0x0000
80003cbc:	0040                	.insn	2, 0x0040
80003cbe:	0000                	.insn	2, 0x0000
80003cc0:	03b5                	.insn	2, 0x03b5
80003cc2:	0000                	.insn	2, 0x0000
80003cc4:	0099                	.insn	2, 0x0099
80003cc6:	0000                	.insn	2, 0x0000
80003cc8:	0248                	.insn	2, 0x0248
80003cca:	0000                	.insn	2, 0x0000
80003ccc:	00d8                	.insn	2, 0x00d8
80003cce:	0000                	.insn	2, 0x0000
80003cd0:	0325                	.insn	2, 0x0325
80003cd2:	0000                	.insn	2, 0x0000
80003cd4:	008c                	.insn	2, 0x008c
80003cd6:	0000                	.insn	2, 0x0000
80003cd8:	026d                	.insn	2, 0x026d
80003cda:	0000                	.insn	2, 0x0000
80003cdc:	00d2                	.insn	2, 0x00d2
80003cde:	0000                	.insn	2, 0x0000
80003ce0:	0006                	.insn	2, 0x0006
80003ce2:	0000                	.insn	2, 0x0000
80003ce4:	023c                	.insn	2, 0x023c
80003ce6:	0000                	.insn	2, 0x0000
80003ce8:	000003a3          	sb	zero,7(zero) # 7 <buf.2+0x7>
80003cec:	00000153          	.insn	4, 0x0153
80003cf0:	037a                	.insn	2, 0x037a
80003cf2:	0000                	.insn	2, 0x0000
80003cf4:	0251                	.insn	2, 0x0251
80003cf6:	0000                	.insn	2, 0x0000
80003cf8:	0188                	.insn	2, 0x0188
80003cfa:	0000                	.insn	2, 0x0000
80003cfc:	0382                	.insn	2, 0x0382
80003cfe:	0000                	.insn	2, 0x0000
80003d00:	02b6                	.insn	2, 0x02b6
80003d02:	0000                	.insn	2, 0x0000
80003d04:	00e4                	.insn	2, 0x00e4
80003d06:	0000                	.insn	2, 0x0000
80003d08:	03c1                	.insn	2, 0x03c1
80003d0a:	0000                	.insn	2, 0x0000
80003d0c:	000c                	.insn	2, 0x000c
80003d0e:	0000                	.insn	2, 0x0000
80003d10:	006e                	.insn	2, 0x006e
80003d12:	0000                	.insn	2, 0x0000
80003d14:	00000373          	.insn	4, 0x0373
80003d18:	0074                	.insn	2, 0x0074
80003d1a:	0000                	.insn	2, 0x0000
80003d1c:	02ee                	.insn	2, 0x02ee
80003d1e:	0000                	.insn	2, 0x0000
80003d20:	0128                	.insn	2, 0x0128
80003d22:	0000                	.insn	2, 0x0000
80003d24:	0286                	.insn	2, 0x0286
80003d26:	0000                	.insn	2, 0x0000
80003d28:	01aa                	.insn	2, 0x01aa
80003d2a:	0000                	.insn	2, 0x0000
80003d2c:	01f4                	.insn	2, 0x01f4
80003d2e:	0000                	.insn	2, 0x0000
80003d30:	013a                	.insn	2, 0x013a
80003d32:	0000                	.insn	2, 0x0000
80003d34:	01b4                	.insn	2, 0x01b4
80003d36:	0000                	.insn	2, 0x0000
80003d38:	00000293          	li	t0,0
80003d3c:	02bd                	.insn	2, 0x02bd
80003d3e:	0000                	.insn	2, 0x0000
80003d40:	0306                	.insn	2, 0x0306
80003d42:	0000                	.insn	2, 0x0000
80003d44:	032c                	.insn	2, 0x032c
80003d46:	0000                	.insn	2, 0x0000
80003d48:	0000013f 000003d5 	.insn	8, 0x03d50000013f
80003d50:	02a6                	.insn	2, 0x02a6
80003d52:	0000                	.insn	2, 0x0000
80003d54:	0096                	.insn	2, 0x0096
80003d56:	0000                	.insn	2, 0x0000
80003d58:	0000036b          	.insn	4, 0x036b
80003d5c:	02b8                	.insn	2, 0x02b8
80003d5e:	0000                	.insn	2, 0x0000
80003d60:	0178                	.insn	2, 0x0178
80003d62:	0000                	.insn	2, 0x0000
80003d64:	0234                	.insn	2, 0x0234
80003d66:	0000                	.insn	2, 0x0000
80003d68:	01da                	.insn	2, 0x01da
80003d6a:	0000                	.insn	2, 0x0000
80003d6c:	0110                	.insn	2, 0x0110
80003d6e:	0000                	.insn	2, 0x0000
80003d70:	03aa                	.insn	2, 0x03aa
80003d72:	0000                	.insn	2, 0x0000
80003d74:	0102                	.insn	2, 0x0102
80003d76:	0000                	.insn	2, 0x0000
80003d78:	0000021b          	.insn	4, 0x021b
80003d7c:	00000287          	.insn	4, 0x0287
80003d80:	0239                	.insn	2, 0x0239
80003d82:	0000                	.insn	2, 0x0000
80003d84:	01fd                	.insn	2, 0x01fd
80003d86:	0000                	.insn	2, 0x0000
80003d88:	000000cb          	.insn	4, 0x00cb
80003d8c:	0058                	.insn	2, 0x0058
80003d8e:	0000                	.insn	2, 0x0000
80003d90:	0118                	.insn	2, 0x0118
80003d92:	0000                	.insn	2, 0x0000
80003d94:	000002bf 000002f7 	.insn	8, 0x02f7000002bf
80003d9c:	029d                	.insn	2, 0x029d
80003d9e:	0000                	.insn	2, 0x0000
80003da0:	025e                	.insn	2, 0x025e
80003da2:	0000                	.insn	2, 0x0000
80003da4:	00000177          	.insn	4, 0x0177
80003da8:	01ff 0000 0227 0000 	.insn	10, 0x029100000227000001ff
80003db0:	0291 
80003db2:	0000                	.insn	2, 0x0000
80003db4:	03a8                	.insn	2, 0x03a8
80003db6:	0000                	.insn	2, 0x0000
80003db8:	000000c3          	.insn	4, 0x00c3
80003dbc:	0250                	.insn	2, 0x0250
80003dbe:	0000                	.insn	2, 0x0000
80003dc0:	0051                	.insn	2, 0x0051
80003dc2:	0000                	.insn	2, 0x0000
80003dc4:	0239                	.insn	2, 0x0239
80003dc6:	0000                	.insn	2, 0x0000
80003dc8:	0000010b          	.insn	4, 0x010b
80003dcc:	03b8                	.insn	2, 0x03b8
80003dce:	0000                	.insn	2, 0x0000
80003dd0:	00e5                	.insn	2, 0x00e5
80003dd2:	0000                	.insn	2, 0x0000
80003dd4:	0320                	.insn	2, 0x0320
80003dd6:	0000                	.insn	2, 0x0000
80003dd8:	0151                	.insn	2, 0x0151
80003dda:	0000                	.insn	2, 0x0000
80003ddc:	0248                	.insn	2, 0x0248
80003dde:	0000                	.insn	2, 0x0000
80003de0:	03b0                	.insn	2, 0x03b0
80003de2:	0000                	.insn	2, 0x0000
80003de4:	00000283          	lb	t0,0(zero) # 0 <buf.2>
80003de8:	0386                	.insn	2, 0x0386
80003dea:	0000                	.insn	2, 0x0000
80003dec:	0170                	.insn	2, 0x0170
80003dee:	0000                	.insn	2, 0x0000
80003df0:	00f1                	.insn	2, 0x00f1
80003df2:	0000                	.insn	2, 0x0000
80003df4:	01e9                	.insn	2, 0x01e9
80003df6:	0000                	.insn	2, 0x0000
80003df8:	0391                	.insn	2, 0x0391
80003dfa:	0000                	.insn	2, 0x0000
80003dfc:	0148                	.insn	2, 0x0148
80003dfe:	0000                	.insn	2, 0x0000
80003e00:	033a                	.insn	2, 0x033a
80003e02:	0000                	.insn	2, 0x0000
80003e04:	0139                	.insn	2, 0x0139
80003e06:	0000                	.insn	2, 0x0000
80003e08:	03a5                	.insn	2, 0x03a5
80003e0a:	0000                	.insn	2, 0x0000
80003e0c:	0250                	.insn	2, 0x0250
80003e0e:	0000                	.insn	2, 0x0000
80003e10:	03d9                	.insn	2, 0x03d9
80003e12:	0000                	.insn	2, 0x0000
80003e14:	0184                	.insn	2, 0x0184
80003e16:	0000                	.insn	2, 0x0000

80003e18 <input_data2>:
80003e18:	000000c3          	.insn	4, 0x00c3
80003e1c:	021f 0000 03c0      	.insn	6, 0x03c00000021f
80003e22:	0000                	.insn	2, 0x0000
80003e24:	0289                	.insn	2, 0x0289
80003e26:	0000                	.insn	2, 0x0000
80003e28:	0236                	.insn	2, 0x0236
80003e2a:	0000                	.insn	2, 0x0000
80003e2c:	000003d3          	.insn	4, 0x03d3
80003e30:	015e                	.insn	2, 0x015e
80003e32:	0000                	.insn	2, 0x0000
80003e34:	03e5                	.insn	2, 0x03e5
80003e36:	0000                	.insn	2, 0x0000
80003e38:	0289                	.insn	2, 0x0289
80003e3a:	0000                	.insn	2, 0x0000
80003e3c:	032e                	.insn	2, 0x032e
80003e3e:	0000                	.insn	2, 0x0000
80003e40:	0291                	.insn	2, 0x0291
80003e42:	0000                	.insn	2, 0x0000
80003e44:	0000004f          	.insn	4, 0x004f
80003e48:	00b5                	.insn	2, 0x00b5
80003e4a:	0000                	.insn	2, 0x0000
80003e4c:	00d0                	.insn	2, 0x00d0
80003e4e:	0000                	.insn	2, 0x0000
80003e50:	0000006f          	j	80003e50 <input_data2+0x38>
80003e54:	03e6                	.insn	2, 0x03e6
80003e56:	0000                	.insn	2, 0x0000
80003e58:	0000035b          	.insn	4, 0x035b
80003e5c:	0275                	.insn	2, 0x0275
80003e5e:	0000                	.insn	2, 0x0000
80003e60:	0041                	.insn	2, 0x0041
80003e62:	0000                	.insn	2, 0x0000
80003e64:	0000034f          	.insn	4, 0x034f
80003e68:	0120                	.insn	2, 0x0120
80003e6a:	0000                	.insn	2, 0x0000
80003e6c:	02c0                	.insn	2, 0x02c0
80003e6e:	0000                	.insn	2, 0x0000
80003e70:	015d                	.insn	2, 0x015d
80003e72:	0000                	.insn	2, 0x0000
80003e74:	03e5                	.insn	2, 0x03e5
80003e76:	0000                	.insn	2, 0x0000
80003e78:	008d                	.insn	2, 0x008d
80003e7a:	0000                	.insn	2, 0x0000
80003e7c:	00fd                	.insn	2, 0x00fd
80003e7e:	0000                	.insn	2, 0x0000
80003e80:	0389                	.insn	2, 0x0389
80003e82:	0000                	.insn	2, 0x0000
80003e84:	000002cb          	.insn	4, 0x02cb
80003e88:	0376                	.insn	2, 0x0376
80003e8a:	0000                	.insn	2, 0x0000
80003e8c:	01ae                	.insn	2, 0x01ae
80003e8e:	0000                	.insn	2, 0x0000
80003e90:	0108                	.insn	2, 0x0108
80003e92:	0000                	.insn	2, 0x0000
80003e94:	019f 0000 0240      	.insn	6, 0x02400000019f
80003e9a:	0000                	.insn	2, 0x0000
80003e9c:	021a                	.insn	2, 0x021a
80003e9e:	0000                	.insn	2, 0x0000
80003ea0:	000003d3          	.insn	4, 0x03d3
80003ea4:	02bc                	.insn	2, 0x02bc
80003ea6:	0000                	.insn	2, 0x0000
80003ea8:	02f9                	.insn	2, 0x02f9
80003eaa:	0000                	.insn	2, 0x0000
80003eac:	0004                	.insn	2, 0x0004
80003eae:	0000                	.insn	2, 0x0000
80003eb0:	00f1                	.insn	2, 0x00f1
80003eb2:	0000                	.insn	2, 0x0000
80003eb4:	01ee                	.insn	2, 0x01ee
80003eb6:	0000                	.insn	2, 0x0000
80003eb8:	01de                	.insn	2, 0x01de
80003eba:	0000                	.insn	2, 0x0000
80003ebc:	0064                	.insn	2, 0x0064
80003ebe:	0000                	.insn	2, 0x0000
80003ec0:	000001f3          	.insn	4, 0x01f3
80003ec4:	0360                	.insn	2, 0x0360
80003ec6:	0000                	.insn	2, 0x0000
80003ec8:	00000193          	li	gp,0
80003ecc:	02b5                	.insn	2, 0x02b5
80003ece:	0000                	.insn	2, 0x0000
80003ed0:	00de                	.insn	2, 0x00de
80003ed2:	0000                	.insn	2, 0x0000
80003ed4:	01a0                	.insn	2, 0x01a0
80003ed6:	0000                	.insn	2, 0x0000
80003ed8:	01bc                	.insn	2, 0x01bc
80003eda:	0000                	.insn	2, 0x0000
80003edc:	0128                	.insn	2, 0x0128
80003ede:	0000                	.insn	2, 0x0000
80003ee0:	02d1                	.insn	2, 0x02d1
80003ee2:	0000                	.insn	2, 0x0000
80003ee4:	011d                	.insn	2, 0x011d
80003ee6:	0000                	.insn	2, 0x0000
80003ee8:	02a4                	.insn	2, 0x02a4
80003eea:	0000                	.insn	2, 0x0000
80003eec:	026c                	.insn	2, 0x026c
80003eee:	0000                	.insn	2, 0x0000
80003ef0:	013d                	.insn	2, 0x013d
80003ef2:	0000                	.insn	2, 0x0000
80003ef4:	004e                	.insn	2, 0x004e
80003ef6:	0000                	.insn	2, 0x0000
80003ef8:	00e0                	.insn	2, 0x00e0
80003efa:	0000                	.insn	2, 0x0000
80003efc:	015f 0000 03a9      	.insn	6, 0x03a90000015f
80003f02:	0000                	.insn	2, 0x0000
80003f04:	021c                	.insn	2, 0x021c
80003f06:	0000                	.insn	2, 0x0000
80003f08:	0120                	.insn	2, 0x0120
80003f0a:	0000                	.insn	2, 0x0000
80003f0c:	0286                	.insn	2, 0x0286
80003f0e:	0000                	.insn	2, 0x0000
80003f10:	00000077          	.insn	4, 0x0077
80003f14:	00a9                	.insn	2, 0x00a9
80003f16:	0000                	.insn	2, 0x0000
80003f18:	00000267          	jalr	tp,zero # 0 <buf.2>
80003f1c:	0000020f          	.insn	4, 0x020f
80003f20:	025e                	.insn	2, 0x025e
80003f22:	0000                	.insn	2, 0x0000
80003f24:	0121                	.insn	2, 0x0121
80003f26:	0000                	.insn	2, 0x0000
80003f28:	0185                	.insn	2, 0x0185
80003f2a:	0000                	.insn	2, 0x0000
80003f2c:	031c                	.insn	2, 0x031c
80003f2e:	0000                	.insn	2, 0x0000
80003f30:	015f 0000 0321      	.insn	6, 0x03210000015f
80003f36:	0000                	.insn	2, 0x0000
80003f38:	000001c7          	.insn	4, 0x01c7
80003f3c:	02d0                	.insn	2, 0x02d0
80003f3e:	0000                	.insn	2, 0x0000
80003f40:	0116                	.insn	2, 0x0116
80003f42:	0000                	.insn	2, 0x0000
80003f44:	02f6                	.insn	2, 0x02f6
80003f46:	0000                	.insn	2, 0x0000
80003f48:	0000016f          	jal	sp,80003f48 <input_data2+0x130>
80003f4c:	02e9                	.insn	2, 0x02e9
80003f4e:	0000                	.insn	2, 0x0000
80003f50:	0166                	.insn	2, 0x0166
80003f52:	0000                	.insn	2, 0x0000
80003f54:	005c                	.insn	2, 0x005c
80003f56:	0000                	.insn	2, 0x0000
80003f58:	0248                	.insn	2, 0x0248
80003f5a:	0000                	.insn	2, 0x0000
80003f5c:	03dd                	.insn	2, 0x03dd
80003f5e:	0000                	.insn	2, 0x0000
80003f60:	003e                	.insn	2, 0x003e
80003f62:	0000                	.insn	2, 0x0000
80003f64:	0000010f          	.insn	4, 0x010f
80003f68:	03d9                	.insn	2, 0x03d9
80003f6a:	0000                	.insn	2, 0x0000
80003f6c:	0355                	.insn	2, 0x0355
80003f6e:	0000                	.insn	2, 0x0000
80003f70:	00000193          	li	gp,0
80003f74:	0314                	.insn	2, 0x0314
80003f76:	0000                	.insn	2, 0x0000
80003f78:	015a                	.insn	2, 0x015a
80003f7a:	0000                	.insn	2, 0x0000
80003f7c:	00000213          	li	tp,0
80003f80:	0205                	.insn	2, 0x0205
80003f82:	0000                	.insn	2, 0x0000
80003f84:	00de                	.insn	2, 0x00de
80003f86:	0000                	.insn	2, 0x0000
80003f88:	0000022f          	.insn	4, 0x022f
80003f8c:	01cd                	.insn	2, 0x01cd
80003f8e:	0000                	.insn	2, 0x0000
80003f90:	038c                	.insn	2, 0x038c
80003f92:	0000                	.insn	2, 0x0000
80003f94:	00f1                	.insn	2, 0x00f1
80003f96:	0000                	.insn	2, 0x0000
80003f98:	00000307          	.insn	4, 0x0307
80003f9c:	0166                	.insn	2, 0x0166
80003f9e:	0000                	.insn	2, 0x0000
80003fa0:	00ff 0000 014c 0000 	.insn	10, 0x1f3b0000014c000000ff
80003fa8:	 

80003fa8 <verify_data>:
80003fa8:	00001f3b          	.insn	4, 0x1f3b
80003fac:	c2fa                	.insn	2, 0xc2fa
80003fae:	33c00003          	lb	zero,828(zero) # 33c <buflen.1+0x2fc>
80003fb2:	000c                	.insn	2, 0x000c
80003fb4:	00035147          	.insn	4, 0x00035147
80003fb8:	def8                	.insn	2, 0xdef8
80003fba:	0004                	.insn	2, 0x0004
80003fbc:	000003d3          	.insn	4, 0x03d3
80003fc0:	ffaa                	.insn	2, 0xffaa
80003fc2:	0000                	.insn	2, 0x0000
80003fc4:	0bb1                	.insn	2, 0x0bb1
80003fc6:	6ad5000f          	.insn	4, 0x6ad5000f
80003fca:	88960007          	.insn	4, 0x88960007
80003fce:	0004                	.insn	2, 0x0004
80003fd0:	823e                	.insn	2, 0x823e
80003fd2:	b0840003          	lb	zero,-1272(s0)
80003fd6:	0000                	.insn	2, 0x0000
80003fd8:	5d54                	.insn	2, 0x5d54
80003fda:	0000                	.insn	2, 0x0000
80003fdc:	3400                	.insn	2, 0x3400
80003fde:	0000                	.insn	2, 0x0000
80003fe0:	00019b7b          	.insn	4, 0x00019b7b
80003fe4:	5476                	.insn	2, 0x5476
80003fe6:	0002                	.insn	2, 0x0002
80003fe8:	a798                	.insn	2, 0xa798
80003fea:	12b80007          	.insn	4, 0x12b80007
80003fee:	0002                	.insn	2, 0x0002
80003ff0:	cc65                	.insn	2, 0xcc65
80003ff2:	0000                	.insn	2, 0x0000
80003ff4:	cf34                	.insn	2, 0xcf34
80003ff6:	0001                	.insn	2, 0x0001
80003ff8:	baa0                	.insn	2, 0xbaa0
80003ffa:	0002                	.insn	2, 0x0002
80003ffc:	4180                	.insn	2, 0x4180
80003ffe:	0002                	.insn	2, 0x0002
80004000:	082e                	.insn	2, 0x082e
80004002:	0000                	.insn	2, 0x0000
80004004:	b3ac                	.insn	2, 0xb3ac
80004006:	0008                	.insn	2, 0x0008
80004008:	000200c7          	.insn	4, 0x000200c7
8000400c:	00014f07          	.insn	4, 0x00014f07
80004010:	4a4a                	.insn	2, 0x4a4a
80004012:	000c                	.insn	2, 0x000c
80004014:	0006783b          	.insn	4, 0x0006783b
80004018:	4cb0                	.insn	2, 0x4cb0
8000401a:	0005                	.insn	2, 0x0005
8000401c:	e45c                	.insn	2, 0xe45c
8000401e:	0005                	.insn	2, 0x0005
80004020:	cbb0                	.insn	2, 0xcbb0
80004022:	0002                	.insn	2, 0x0002
80004024:	719c                	.insn	2, 0x719c
80004026:	0001                	.insn	2, 0x0001
80004028:	7240                	.insn	2, 0x7240
8000402a:	0008                	.insn	2, 0x0008
8000402c:	1938                	.insn	2, 0x1938
8000402e:	0000                	.insn	2, 0x0000
80004030:	a4aa                	.insn	2, 0xa4aa
80004032:	0001                	.insn	2, 0x0001
80004034:	6e74                	.insn	2, 0x6e74
80004036:	0009                	.insn	2, 0x0009
80004038:	58d4                	.insn	2, 0x58d4
8000403a:	0001                	.insn	2, 0x0001
8000403c:	0bb8                	.insn	2, 0x0bb8
8000403e:	0000                	.insn	2, 0x0000
80004040:	16a8                	.insn	2, 0x16a8
80004042:	0001                	.insn	2, 0x0001
80004044:	de94                	.insn	2, 0xde94
80004046:	0004                	.insn	2, 0x0004
80004048:	1b6c                	.insn	2, 0x1b6c
8000404a:	c3500003          	lb	zero,-971(zero) # fffffc35 <__global_pointer$+0x7fffb2fd>
8000404e:	0000                	.insn	2, 0x0000
80004050:	640e                	.insn	2, 0x640e
80004052:	0002                	.insn	2, 0x0002
80004054:	bf80                	.insn	2, 0xbf80
80004056:	0005                	.insn	2, 0x0005
80004058:	0d69                	.insn	2, 0x0d69
8000405a:	0004                	.insn	2, 0x0004
8000405c:	69a1                	.insn	2, 0x69a1
8000405e:	9f340007          	.insn	4, 0x9f340007
80004062:	0002                	.insn	2, 0x0002
80004064:	2780                	.insn	2, 0x2780
80004066:	0005                	.insn	2, 0x0005
80004068:	2944                	.insn	2, 0x2944
8000406a:	0002                	.insn	2, 0x0002
8000406c:	6e48                	.insn	2, 0x6e48
8000406e:	0004                	.insn	2, 0x0004
80004070:	7586                	.insn	2, 0x7586
80004072:	a6fe0007          	.insn	4, 0xa6fe0007
80004076:	0000                	.insn	2, 0x0000
80004078:	068c                	.insn	2, 0x068c
8000407a:	0009                	.insn	2, 0x0009
8000407c:	95a0                	.insn	2, 0x95a0
8000407e:	0006                	.insn	2, 0x0006
80004080:	d198                	.insn	2, 0xd198
80004082:	0001                	.insn	2, 0x0001
80004084:	abd8                	.insn	2, 0xabd8
80004086:	0000                	.insn	2, 0x0000
80004088:	9ec0                	.insn	2, 0x9ec0
8000408a:	0001                	.insn	2, 0x0001
8000408c:	74f0                	.insn	2, 0x74f0
8000408e:	0001                	.insn	2, 0x0001
80004090:	693a                	.insn	2, 0x693a
80004092:	000d                	.insn	2, 0x000d
80004094:	2038                	.insn	2, 0x2038
80004096:	0002                	.insn	2, 0x0002
80004098:	5e60                	.insn	2, 0x5e60
8000409a:	0002                	.insn	2, 0x0002
8000409c:	60aa                	.insn	2, 0x60aa
8000409e:	0006                	.insn	2, 0x0006
800040a0:	087f 0001 5005 0001 	.insn	10, 0xe7ad000150050001087f
800040a8:	e7ad 
800040aa:	0001                	.insn	2, 0x0001
800040ac:	b528                	.insn	2, 0xb528
800040ae:	0000                	.insn	2, 0x0000
800040b0:	96d0                	.insn	2, 0x96d0
800040b2:	0002                	.insn	2, 0x0002
800040b4:	199f 0003 8153      	.insn	6, 0x81530003199f
800040ba:	0004                	.insn	2, 0x0004
800040bc:	202c                	.insn	2, 0x202c
800040be:	0008                	.insn	2, 0x0008
800040c0:	3ee2                	.insn	2, 0x3ee2
800040c2:	95570003          	lb	zero,-1707(a4) # f955 <buflen.1+0xf915>
800040c6:	0004                	.insn	2, 0x0004
800040c8:	8c39                	.insn	2, 0x8c39
800040ca:	0db00003          	lb	zero,219(zero) # db <buflen.1+0x9b>
800040ce:	0006                	.insn	2, 0x0006
800040d0:	c976                	.insn	2, 0xc976
800040d2:	0002                	.insn	2, 0x0002
800040d4:	d370                	.insn	2, 0xd370
800040d6:	000a                	.insn	2, 0x000a
800040d8:	178d                	.insn	2, 0x178d
800040da:	0001                	.insn	2, 0x0001
800040dc:	bad0                	.insn	2, 0xbad0
800040de:	0006                	.insn	2, 0x0006
800040e0:	7146                	.insn	2, 0x7146
800040e2:	0000                	.insn	2, 0x0000
800040e4:	cc7c                	.insn	2, 0xcc7c
800040e6:	0000                	.insn	2, 0x0000
800040e8:	6118                	.insn	2, 0x6118
800040ea:	0002                	.insn	2, 0x0002
800040ec:	5dd8                	.insn	2, 0x5dd8
800040ee:	000e                	.insn	2, 0x000e
800040f0:	3776                	.insn	2, 0x3776
800040f2:	0000                	.insn	2, 0x0000
800040f4:	4ee0                	.insn	2, 0x4ee0
800040f6:	10a90003          	lb	zero,266(s2)
800040fa:	0005                	.insn	2, 0x0005
800040fc:	99e8                	.insn	2, 0x99e8
800040fe:	ce100007          	.insn	4, 0xce100007
80004102:	0005                	.insn	2, 0x0005
80004104:	bb3c                	.insn	2, 0xbb3c
80004106:	c31c0007          	.insn	4, 0xc31c0007
8000410a:	0004                	.insn	2, 0x0004
8000410c:	fb50                	.insn	2, 0xfb50
8000410e:	0002                	.insn	2, 0x0002
80004110:	e6b5                	.insn	2, 0xe6b5
80004112:	0001                	.insn	2, 0x0001
80004114:	a80e                	.insn	2, 0xa80e
80004116:	0001                	.insn	2, 0x0001
80004118:	c99f 0007 4ea8      	.insn	6, 0x4ea80007c99f
8000411e:	0002                	.insn	2, 0x0002
80004120:	71b8                	.insn	2, 0x71b8
80004122:	26a9000b          	.insn	4, 0x26a9000b
80004126:	0001                	.insn	2, 0x0001
80004128:	000b0883          	lb	a7,0(s6)
8000412c:	3be0                	.insn	2, 0x3be0
8000412e:	d5270003          	lb	zero,-686(a4)
80004132:	f7300003          	lb	zero,-141(zero) # ffffff73 <__global_pointer$+0x7fffb63b>
80004136:	0001                	.insn	2, 0x0001
